(dp0
S'METTS MARK'
p1
(dp2
S'salary'
p3
I365788
sS'to_messages'
p4
I807
sS'deferral_payments'
p5
I0
sS'total_payments'
p6
I1061827
sS'exercised_stock_options'
p7
I0
sS'bonus'
p8
I600000
sS'restricted_stock'
p9
I585062
sS'shared_receipt_with_poi'
p10
I702
sS'restricted_stock_deferred'
p11
I0
sS'total_stock_value'
p12
I585062
sS'expenses'
p13
I94299
sS'loan_advances'
p14
I0
sS'from_messages'
p15
I29
sS'other'
p16
I1740
sS'from_this_person_to_poi'
p17
I1
sS'poi'
p18
I00
sS'director_fees'
p19
I0
sS'deferred_income'
p20
I0
sS'long_term_incentive'
p21
I0
sS'email_address'
p22
S'mark.metts@enron.com'
p23
sS'from_poi_to_this_person'
p24
I38
ssS'BAXTER JOHN C'
p25
(dp26
g3
I267102
sg4
I0
sg5
I1295738
sg6
I5634343
sg7
I6680544
sg8
I1200000
sg9
I3942714
sg10
I0
sg11
I0
sg12
I10623258
sg13
I11200
sg14
I0
sg15
I0
sg16
I2660303
sg17
I0
sg18
I00
sg19
I0
sg20
I-1386055
sg21
I1586055
sg22
I0
sg24
I0
ssS'ELLIOTT STEVEN'
p27
(dp28
g3
I170941
sg4
I0
sg5
I0
sg6
I211725
sg7
I4890344
sg8
I350000
sg9
I1788391
sg10
I0
sg11
I0
sg12
I6678735
sg13
I78552
sg14
I0
sg15
I0
sg16
I12961
sg17
I0
sg18
I00
sg19
I0
sg20
I-400729
sg21
I0
sg22
S'steven.elliott@enron.com'
p29
sg24
I0
ssS'CORDES WILLIAM R'
p30
(dp31
g3
I0
sg4
I764
sg5
I0
sg6
I0
sg7
I651850
sg8
I0
sg9
I386335
sg10
I58
sg11
I0
sg12
I1038185
sg13
I0
sg14
I0
sg15
I12
sg16
I0
sg17
I0
sg18
I00
sg19
I0
sg20
I0
sg21
I0
sg22
S'bill.cordes@enron.com'
p32
sg24
I10
ssS'HANNON KEVIN P'
p33
(dp34
g3
I243293
sg4
I1045
sg5
I0
sg6
I288682
sg7
I5538001
sg8
I1500000
sg9
I853064
sg10
I1035
sg11
I0
sg12
I6391065
sg13
I34039
sg14
I0
sg15
I32
sg16
I11350
sg17
I21
sg18
I01
sg19
I0
sg20
I-3117011
sg21
I1617011
sg22
S'kevin.hannon@enron.com'
p35
sg24
I32
ssS'MORDAUNT KRISTINA M'
p36
(dp37
g3
I267093
sg4
I0
sg5
I0
sg6
I628522
sg7
I0
sg8
I325000
sg9
I208510
sg10
I0
sg11
I0
sg12
I208510
sg13
I35018
sg14
I0
sg15
I0
sg16
I1411
sg17
I0
sg18
I00
sg19
I0
sg20
I0
sg21
I0
sg22
S'kristina.mordaunt@enron.com'
p38
sg24
I0
ssS'MEYER ROCKFORD G'
p39
(dp40
g3
I0
sg4
I232
sg5
I1848227
sg6
I1848227
sg7
I493489
sg8
I0
sg9
I462384
sg10
I22
sg11
I0
sg12
I955873
sg13
I0
sg14
I0
sg15
I28
sg16
I0
sg17
I0
sg18
I00
sg19
I0
sg20
I0
sg21
I0
sg22
S'rockford.meyer@enron.com'
p41
sg24
I0
ssS'MCMAHON JEFFREY'
p42
(dp43
g3
I370448
sg4
I2355
sg5
I0
sg6
I4099771
sg7
I1104054
sg8
I2600000
sg9
I558801
sg10
I2228
sg11
I0
sg12
I1662855
sg13
I137108
sg14
I0
sg15
I48
sg16
I297353
sg17
I26
sg18
I00
sg19
I0
sg20
I0
sg21
I694862
sg22
S'jeffrey.mcmahon@enron.com'
p44
sg24
I58
ssS'HORTON STANLEY C'
p45
(dp46
g3
I0
sg4
I2350
sg5
I3131860
sg6
I3131860
sg7
I5210569
sg8
I0
sg9
I2046079
sg10
I1074
sg11
I0
sg12
I7256648
sg13
I0
sg14
I0
sg15
I1073
sg16
I0
sg17
I15
sg18
I00
sg19
I0
sg20
I0
sg21
I0
sg22
S'stanley.horton@enron.com'
p47
sg24
I44
ssS'PIPER GREGORY F'
p48
(dp49
g3
I197091
sg4
I1238
sg5
I1130036
sg6
I1737629
sg7
I880290
sg8
I400000
sg9
I409554
sg10
I742
sg11
I-409554
sg12
I880290
sg13
I43057
sg14
I0
sg15
I222
sg16
I778
sg17
I48
sg18
I00
sg19
I0
sg20
I-33333
sg21
I0
sg22
S'greg.piper@enron.com'
p50
sg24
I61
ssS'HUMPHREY GENE E'
p51
(dp52
g3
I130724
sg4
I128
sg5
I2964506
sg6
I3100224
sg7
I2282768
sg8
I0
sg9
I0
sg10
I119
sg11
I0
sg12
I2282768
sg13
I4994
sg14
I0
sg15
I17
sg16
I0
sg17
I17
sg18
I00
sg19
I0
sg20
I0
sg21
I0
sg22
S'gene.humphrey@enron.com'
p53
sg24
I10
ssS'UMANOFF ADAM S'
p54
(dp55
g3
I288589
sg4
I111
sg5
I0
sg6
I1130461
sg7
I0
sg8
I788750
sg9
I0
sg10
I41
sg11
I0
sg12
I0
sg13
I53122
sg14
I0
sg15
I18
sg16
I0
sg17
I0
sg18
I00
sg19
I0
sg20
I0
sg21
I0
sg22
S'adam.umanoff@enron.com'
p56
sg24
I12
ssS'BLACHMAN JEREMY M'
p57
(dp58
g3
I248546
sg4
I2475
sg5
I0
sg6
I2014835
sg7
I765313
sg8
I850000
sg9
I189041
sg10
I2326
sg11
I0
sg12
I954354
sg13
I84208
sg14
I0
sg15
I14
sg16
I272
sg17
I2
sg18
I00
sg19
I0
sg20
I0
sg21
I831809
sg22
S'jeremy.blachman@enron.com'
p59
sg24
I25
ssS'SUNDE MARTIN'
p60
(dp61
g3
I257486
sg4
I2647
sg5
I0
sg6
I1545059
sg7
I0
sg8
I700000
sg9
I698920
sg10
I2565
sg11
I0
sg12
I698920
sg13
I0
sg14
I0
sg15
I38
sg16
I111122
sg17
I13
sg18
I00
sg19
I0
sg20
I0
sg21
I476451
sg22
S'marty.sunde@enron.com'
p62
sg24
I37
ssS'GIBBS DANA R'
p63
(dp64
g3
I0
sg4
I169
sg5
I504610
sg6
I966522
sg7
I2218275
sg8
I0
sg9
I0
sg10
I23
sg11
I0
sg12
I2218275
sg13
I0
sg14
I0
sg15
I12
sg16
I0
sg17
I0
sg18
I00
sg19
I0
sg20
I0
sg21
I461912
sg22
S'dana.gibbs@enron.com'
p65
sg24
I0
ssS'LOWRY CHARLES P'
p66
(dp67
g3
I0
sg4
I0
sg5
I0
sg6
I0
sg7
I372205
sg8
I0
sg9
I153686
sg10
I0
sg11
I-153686
sg12
I372205
sg13
I0
sg14
I0
sg15
I0
sg16
I0
sg17
I0
sg18
I00
sg19
I0
sg20
I0
sg21
I0
sg22
I0
sg24
I0
ssS'COLWELL WESLEY'
p68
(dp69
g3
I288542
sg4
I1758
sg5
I27610
sg6
I1490344
sg7
I0
sg8
I1200000
sg9
I698242
sg10
I1132
sg11
I0
sg12
I698242
sg13
I16514
sg14
I0
sg15
I40
sg16
I101740
sg17
I11
sg18
I01
sg19
I0
sg20
I-144062
sg21
I0
sg22
S'wes.colwell@enron.com'
p70
sg24
I240
ssS'MULLER MARK S'
p71
(dp72
g3
I251654
sg4
I136
sg5
I842924
sg6
I3202070
sg7
I1056320
sg8
I1100000
sg9
I360528
sg10
I114
sg11
I0
sg12
I1416848
sg13
I0
sg14
I0
sg15
I16
sg16
I947
sg17
I0
sg18
I00
sg19
I0
sg20
I-719000
sg21
I1725545
sg22
S's..muller@enron.com'
p73
sg24
I12
ssS'JACKSON CHARLENE R'
p74
(dp75
g3
I288558
sg4
I258
sg5
I0
sg6
I551174
sg7
I185063
sg8
I250000
sg9
I540672
sg10
I117
sg11
I0
sg12
I725735
sg13
I10181
sg14
I0
sg15
I56
sg16
I2435
sg17
I19
sg18
I00
sg19
I0
sg20
I0
sg21
I0
sg22
S'charlene.jackson@enron.com'
p76
sg24
I25
ssS'WESTFAHL RICHARD K'
p77
(dp78
g3
I63744
sg4
I0
sg5
I0
sg6
I762135
sg7
I0
sg8
I0
sg9
I384930
sg10
I0
sg11
I0
sg12
I384930
sg13
I51870
sg14
I0
sg15
I0
sg16
I401130
sg17
I0
sg18
I00
sg19
I0
sg20
I-10800
sg21
I256191
sg22
S'dick.westfahl@enron.com'
p79
sg24
I0
ssS'WALTERS GARETH W'
p80
(dp81
g3
I0
sg4
I0
sg5
I53625
sg6
I87410
sg7
I1030329
sg8
I0
sg9
I0
sg10
I0
sg11
I0
sg12
I1030329
sg13
I33785
sg14
I0
sg15
I0
sg16
I0
sg17
I0
sg18
I00
sg19
I0
sg20
I0
sg21
I0
sg22
I0
sg24
I0
ssS'WALLS JR ROBERT H'
p82
(dp83
g3
I357091
sg4
I671
sg5
I0
sg6
I1798780
sg7
I4346544
sg8
I850000
sg9
I1552453
sg10
I215
sg11
I0
sg12
I5898997
sg13
I50936
sg14
I0
sg15
I146
sg16
I2
sg17
I0
sg18
I00
sg19
I0
sg20
I0
sg21
I540751
sg22
S'rob.walls@enron.com'
p84
sg24
I17
ssS'KITCHEN LOUISE'
p85
(dp86
g3
I271442
sg4
I8305
sg5
I0
sg6
I3471141
sg7
I81042
sg8
I3100000
sg9
I466101
sg10
I3669
sg11
I0
sg12
I547143
sg13
I5774
sg14
I0
sg15
I1728
sg16
I93925
sg17
I194
sg18
I00
sg19
I0
sg20
I0
sg21
I0
sg22
S'louise.kitchen@enron.com'
p87
sg24
I251
ssS'CHAN RONNIE'
p88
(dp89
g3
I0
sg4
I0
sg5
I0
sg6
I0
sg7
I0
sg8
I0
sg9
I32460
sg10
I0
sg11
I-32460
sg12
I0
sg13
I0
sg14
I0
sg15
I0
sg16
I0
sg17
I0
sg18
I00
sg19
I98784
sg20
I-98784
sg21
I0
sg22
I0
sg24
I0
ssS'BELFER ROBERT'
p90
(dp91
g3
I0
sg4
I0
sg5
I-102500
sg6
I102500
sg7
I3285
sg8
I0
sg9
I0
sg10
I0
sg11
I44093
sg12
I-44093
sg13
I0
sg14
I0
sg15
I0
sg16
I0
sg17
I0
sg18
I00
sg19
I3285
sg20
I0
sg21
I0
sg22
I0
sg24
I0
ssS'SHANKMAN JEFFREY A'
p92
(dp93
g3
I304110
sg4
I3221
sg5
I0
sg6
I3038702
sg7
I1441898
sg8
I2000000
sg9
I630137
sg10
I1730
sg11
I0
sg12
I2072035
sg13
I178979
sg14
I0
sg15
I2681
sg16
I1191
sg17
I83
sg18
I00
sg19
I0
sg20
I0
sg21
I554422
sg22
S'jeffrey.shankman@enron.com'
p94
sg24
I94
ssS'WODRASKA JOHN'
p95
(dp96
g3
I0
sg4
I0
sg5
I0
sg6
I189583
sg7
I0
sg8
I0
sg9
I0
sg10
I0
sg11
I0
sg12
I0
sg13
I0
sg14
I0
sg15
I0
sg16
I189583
sg17
I0
sg18
I00
sg19
I0
sg20
I0
sg21
I0
sg22
S'john.wodraska@enron.com'
p97
sg24
I0
ssS'BERGSIEKER RICHARD P'
p98
(dp99
g3
I187922
sg4
I383
sg5
I0
sg6
I618850
sg7
I0
sg8
I250000
sg9
I659249
sg10
I233
sg11
I0
sg12
I659249
sg13
I59175
sg14
I0
sg15
I59
sg16
I427316
sg17
I0
sg18
I00
sg19
I0
sg20
I-485813
sg21
I180250
sg22
S'rick.bergsieker@enron.com'
p100
sg24
I4
ssS'URQUHART JOHN A'
p101
(dp102
g3
I0
sg4
I0
sg5
I0
sg6
I228656
sg7
I0
sg8
I0
sg9
I0
sg10
I0
sg11
I0
sg12
I0
sg13
I228656
sg14
I0
sg15
I0
sg16
I0
sg17
I0
sg18
I00
sg19
I36666
sg20
I-36666
sg21
I0
sg22
I0
sg24
I0
ssS'BIBI PHILIPPE A'
p103
(dp104
g3
I213625
sg4
I1607
sg5
I0
sg6
I2047593
sg7
I1465734
sg8
I1000000
sg9
I378082
sg10
I1336
sg11
I0
sg12
I1843816
sg13
I38559
sg14
I0
sg15
I40
sg16
I425688
sg17
I8
sg18
I00
sg19
I0
sg20
I0
sg21
I369721
sg22
S'philippe.bibi@enron.com'
p105
sg24
I23
ssS'RIEKER PAULA H'
p106
(dp107
g3
I249201
sg4
I1328
sg5
I214678
sg6
I1099100
sg7
I1635238
sg8
I700000
sg9
I283649
sg10
I1258
sg11
I0
sg12
I1918887
sg13
I33271
sg14
I0
sg15
I82
sg16
I1950
sg17
I48
sg18
I01
sg19
I0
sg20
I-100000
sg21
I0
sg22
S'paula.rieker@enron.com'
p108
sg24
I35
ssS'WHALEY DAVID A'
p109
(dp110
g3
I0
sg4
I0
sg5
I0
sg6
I0
sg7
I98718
sg8
I0
sg9
I0
sg10
I0
sg11
I0
sg12
I98718
sg13
I0
sg14
I0
sg15
I0
sg16
I0
sg17
I0
sg18
I00
sg19
I0
sg20
I0
sg21
I0
sg22
I0
sg24
I0
ssS'BECK SALLY W'
p111
(dp112
g3
I231330
sg4
I7315
sg5
I0
sg6
I969068
sg7
I0
sg8
I700000
sg9
I126027
sg10
I2639
sg11
I0
sg12
I126027
sg13
I37172
sg14
I0
sg15
I4343
sg16
I566
sg17
I386
sg18
I00
sg19
I0
sg20
I0
sg21
I0
sg22
S'sally.beck@enron.com'
p113
sg24
I144
ssS'HAUG DAVID L'
p114
(dp115
g3
I0
sg4
I573
sg5
I0
sg6
I475
sg7
I0
sg8
I0
sg9
I2217299
sg10
I471
sg11
I0
sg12
I2217299
sg13
I475
sg14
I0
sg15
I19
sg16
I0
sg17
I7
sg18
I00
sg19
I0
sg20
I0
sg21
I0
sg22
S'david.haug@enron.com'
p116
sg24
I4
ssS'ECHOLS JOHN B'
p117
(dp118
g3
I182245
sg4
I0
sg5
I0
sg6
I2692324
sg7
I601438
sg8
I200000
sg9
I407503
sg10
I0
sg11
I0
sg12
I1008941
sg13
I21530
sg14
I0
sg15
I0
sg16
I53775
sg17
I0
sg18
I00
sg19
I0
sg20
I0
sg21
I2234774
sg22
S'john.echols@enron.com'
p119
sg24
I0
ssS'MENDELSOHN JOHN'
p120
(dp121
g3
I0
sg4
I0
sg5
I0
sg6
I148
sg7
I0
sg8
I0
sg9
I0
sg10
I0
sg11
I0
sg12
I0
sg13
I148
sg14
I0
sg15
I0
sg16
I0
sg17
I0
sg18
I00
sg19
I103750
sg20
I-103750
sg21
I0
sg22
I0
sg24
I0
ssS'HICKERSON GARY J'
p122
(dp123
g3
I211788
sg4
I1320
sg5
I0
sg6
I2081796
sg7
I0
sg8
I1700000
sg9
I441096
sg10
I900
sg11
I0
sg12
I441096
sg13
I98849
sg14
I0
sg15
I27
sg16
I1936
sg17
I1
sg18
I00
sg19
I0
sg20
I0
sg21
I69223
sg22
S'gary.hickerson@enron.com'
p124
sg24
I40
ssS'CLINE KENNETH W'
p125
(dp126
g3
I0
sg4
I0
sg5
I0
sg6
I0
sg7
I0
sg8
I0
sg9
I662086
sg10
I0
sg11
I-472568
sg12
I189518
sg13
I0
sg14
I0
sg15
I0
sg16
I0
sg17
I0
sg18
I00
sg19
I0
sg20
I0
sg21
I0
sg22
I0
sg24
I0
ssS'LEWIS RICHARD'
p127
(dp128
g3
I0
sg4
I952
sg5
I0
sg6
I0
sg7
I850477
sg8
I0
sg9
I0
sg10
I739
sg11
I0
sg12
I850477
sg13
I0
sg14
I0
sg15
I26
sg16
I0
sg17
I0
sg18
I00
sg19
I0
sg20
I0
sg21
I0
sg22
S'richard.lewis@enron.com'
p129
sg24
I10
ssS'HAYES ROBERT E'
p130
(dp131
g3
I0
sg4
I504
sg5
I7961
sg6
I7961
sg7
I0
sg8
I0
sg9
I151418
sg10
I50
sg11
I0
sg12
I151418
sg13
I0
sg14
I0
sg15
I12
sg16
I0
sg17
I0
sg18
I00
sg19
I0
sg20
I0
sg21
I0
sg22
S'robert.hayes@enron.com'
p132
sg24
I16
ssS'MCCARTY DANNY J'
p133
(dp134
g3
I0
sg4
I1433
sg5
I0
sg6
I0
sg7
I664375
sg8
I0
sg9
I94556
sg10
I508
sg11
I0
sg12
I758931
sg13
I0
sg14
I0
sg15
I215
sg16
I0
sg17
I2
sg18
I00
sg19
I0
sg20
I0
sg21
I0
sg22
S'danny.mccarty@enron.com'
p135
sg24
I25
ssS'KOPPER MICHAEL J'
p136
(dp137
g3
I224305
sg4
I0
sg5
I0
sg6
I2652612
sg7
I0
sg8
I800000
sg9
I985032
sg10
I0
sg11
I0
sg12
I985032
sg13
I118134
sg14
I0
sg15
I0
sg16
I907502
sg17
I0
sg18
I01
sg19
I0
sg20
I0
sg21
I602671
sg22
S'michael.kopper@enron.com'
p138
sg24
I0
ssS'LEFF DANIEL P'
p139
(dp140
g3
I273746
sg4
I2822
sg5
I0
sg6
I2664228
sg7
I0
sg8
I1000000
sg9
I360528
sg10
I2672
sg11
I0
sg12
I360528
sg13
I0
sg14
I0
sg15
I63
sg16
I3083
sg17
I14
sg18
I00
sg19
I0
sg20
I0
sg21
I1387399
sg22
S'dan.leff@enron.com'
p141
sg24
I67
ssS'LAVORATO JOHN J'
p142
(dp143
g3
I339288
sg4
I7259
sg5
I0
sg6
I10425757
sg7
I4158995
sg8
I8000000
sg9
I1008149
sg10
I3962
sg11
I0
sg12
I5167144
sg13
I49537
sg14
I0
sg15
I2585
sg16
I1552
sg17
I411
sg18
I00
sg19
I0
sg20
I0
sg21
I2035380
sg22
S'john.lavorato@enron.com'
p144
sg24
I528
ssS'BERBERIAN DAVID'
p145
(dp146
g3
I216582
sg4
I0
sg5
I0
sg6
I228474
sg7
I1624396
sg8
I0
sg9
I869220
sg10
I0
sg11
I0
sg12
I2493616
sg13
I11892
sg14
I0
sg15
I0
sg16
I0
sg17
I0
sg18
I00
sg19
I0
sg20
I0
sg21
I0
sg22
S'david.berberian@enron.com'
p147
sg24
I0
ssS'DETMERING TIMOTHY J'
p148
(dp149
g3
I210500
sg4
I0
sg5
I875307
sg6
I1204583
sg7
I2027865
sg8
I425000
sg9
I315068
sg10
I0
sg11
I-315068
sg12
I2027865
sg13
I52255
sg14
I0
sg15
I0
sg16
I1105
sg17
I0
sg18
I00
sg19
I0
sg20
I-775241
sg21
I415657
sg22
S'timothy.detmering@enron.com'
p150
sg24
I0
ssS'WAKEHAM JOHN'
p151
(dp152
g3
I0
sg4
I0
sg5
I0
sg6
I213071
sg7
I0
sg8
I0
sg9
I0
sg10
I0
sg11
I0
sg12
I0
sg13
I103773
sg14
I0
sg15
I0
sg16
I0
sg17
I0
sg18
I00
sg19
I109298
sg20
I0
sg21
I0
sg22
I0
sg24
I0
ssS'POWERS WILLIAM'
p153
(dp154
g3
I0
sg4
I653
sg5
I0
sg6
I0
sg7
I0
sg8
I0
sg9
I0
sg10
I12
sg11
I0
sg12
I0
sg13
I0
sg14
I0
sg15
I26
sg16
I0
sg17
I0
sg18
I00
sg19
I17500
sg20
I-17500
sg21
I0
sg22
S'ken.powers@enron.com'
p155
sg24
I0
ssS'GOLD JOSEPH'
p156
(dp157
g3
I272880
sg4
I0
sg5
I0
sg6
I2146973
sg7
I436515
sg8
I750000
sg9
I441096
sg10
I0
sg11
I0
sg12
I877611
sg13
I0
sg14
I0
sg15
I0
sg16
I819288
sg17
I0
sg18
I00
sg19
I0
sg20
I0
sg21
I304805
sg22
S'joe.gold@enron.com'
p158
sg24
I0
ssS'BANNANTINE JAMES M'
p159
(dp160
g3
I477
sg4
I566
sg5
I0
sg6
I916197
sg7
I4046157
sg8
I0
sg9
I1757552
sg10
I465
sg11
I-560222
sg12
I5243487
sg13
I56301
sg14
I0
sg15
I29
sg16
I864523
sg17
I0
sg18
I00
sg19
I0
sg20
I-5104
sg21
I0
sg22
S'james.bannantine@enron.com'
p161
sg24
I39
ssS'DUNCAN JOHN H'
p162
(dp163
g3
I0
sg4
I0
sg5
I0
sg6
I77492
sg7
I371750
sg8
I0
sg9
I0
sg10
I0
sg11
I0
sg12
I371750
sg13
I0
sg14
I0
sg15
I0
sg16
I0
sg17
I0
sg18
I00
sg19
I102492
sg20
I-25000
sg21
I0
sg22
I0
sg24
I0
ssS'SHAPIRO RICHARD S'
p164
(dp165
g3
I269076
sg4
I15149
sg5
I0
sg6
I1057548
sg7
I607837
sg8
I650000
sg9
I379164
sg10
I4527
sg11
I0
sg12
I987001
sg13
I137767
sg14
I0
sg15
I1215
sg16
I705
sg17
I65
sg18
I00
sg19
I0
sg20
I0
sg21
I0
sg22
S'richard.shapiro@enron.com'
p166
sg24
I74
ssS'SHERRIFF JOHN R'
p167
(dp168
g3
I428780
sg4
I3187
sg5
I0
sg6
I4335388
sg7
I1835558
sg8
I1500000
sg9
I1293424
sg10
I2103
sg11
I0
sg12
I3128982
sg13
I0
sg14
I0
sg15
I92
sg16
I1852186
sg17
I23
sg18
I00
sg19
I0
sg20
I0
sg21
I554422
sg22
S'john.sherriff@enron.com'
p169
sg24
I28
ssS'SHELBY REX'
p170
(dp171
g3
I211844
sg4
I225
sg5
I0
sg6
I2003885
sg7
I1624396
sg8
I200000
sg9
I869220
sg10
I91
sg11
I0
sg12
I2493616
sg13
I22884
sg14
I0
sg15
I39
sg16
I1573324
sg17
I14
sg18
I01
sg19
I0
sg20
I-4167
sg21
I0
sg22
S'rex.shelby@enron.com'
p172
sg24
I13
ssS'LEMAISTRE CHARLES'
p173
(dp174
g3
I0
sg4
I0
sg5
I0
sg6
I87492
sg7
I412878
sg8
I0
sg9
I0
sg10
I0
sg11
I0
sg12
I412878
sg13
I0
sg14
I0
sg15
I0
sg16
I0
sg17
I0
sg18
I00
sg19
I112492
sg20
I-25000
sg21
I0
sg22
I0
sg24
I0
ssS'DEFFNER JOSEPH M'
p175
(dp176
g3
I206121
sg4
I714
sg5
I0
sg6
I1208649
sg7
I17378
sg8
I600000
sg9
I141833
sg10
I552
sg11
I0
sg12
I159211
sg13
I41626
sg14
I0
sg15
I74
sg16
I25553
sg17
I4
sg18
I00
sg19
I0
sg20
I0
sg21
I335349
sg22
S'joseph.deffner@enron.com'
p177
sg24
I115
ssS'KISHKILL JOSEPH G'
p178
(dp179
g3
I174246
sg4
I0
sg5
I0
sg6
I704896
sg7
I0
sg8
I0
sg9
I1034346
sg10
I0
sg11
I0
sg12
I1034346
sg13
I116335
sg14
I0
sg15
I0
sg16
I465357
sg17
I0
sg18
I00
sg19
I0
sg20
I-51042
sg21
I0
sg22
S'joe.kishkill@enron.com'
p180
sg24
I0
ssS'WHALLEY LAWRENCE G'
p181
(dp182
g3
I510364
sg4
I6019
sg5
I0
sg6
I4677574
sg7
I3282960
sg8
I3000000
sg9
I2796177
sg10
I3920
sg11
I0
sg12
I6079137
sg13
I57838
sg14
I0
sg15
I556
sg16
I301026
sg17
I24
sg18
I00
sg19
I0
sg20
I0
sg21
I808346
sg22
S'greg.whalley@enron.com'
p183
sg24
I186
ssS'MCCONNELL MICHAEL S'
p184
(dp185
g3
I365038
sg4
I3329
sg5
I0
sg6
I2101364
sg7
I1623010
sg8
I1100000
sg9
I1478269
sg10
I2189
sg11
I0
sg12
I3101279
sg13
I81364
sg14
I0
sg15
I2742
sg16
I540
sg17
I194
sg18
I00
sg19
I0
sg20
I0
sg21
I554422
sg22
S'mike.mcconnell@enron.com'
p186
sg24
I92
ssS'PIRO JIM'
p187
(dp188
g3
I0
sg4
I58
sg5
I0
sg6
I0
sg7
I0
sg8
I0
sg9
I47304
sg10
I3
sg11
I0
sg12
I47304
sg13
I0
sg14
I0
sg15
I16
sg16
I0
sg17
I1
sg18
I00
sg19
I0
sg20
I0
sg21
I0
sg22
S'jim.piro@enron.com'
p189
sg24
I0
ssS'DELAINEY DAVID W'
p190
(dp191
g3
I365163
sg4
I3093
sg5
I0
sg6
I4747979
sg7
I2291113
sg8
I3000000
sg9
I1323148
sg10
I2097
sg11
I0
sg12
I3614261
sg13
I86174
sg14
I0
sg15
I3069
sg16
I1661
sg17
I609
sg18
I01
sg19
I0
sg20
I0
sg21
I1294981
sg22
S'david.delainey@enron.com'
p192
sg24
I66
ssS'SULLIVAN-SHAKLOVITZ COLLEEN'
p193
(dp194
g3
I162779
sg4
I0
sg5
I181993
sg6
I999356
sg7
I1362375
sg8
I100000
sg9
I0
sg10
I0
sg11
I0
sg12
I1362375
sg13
I0
sg14
I0
sg15
I0
sg16
I162
sg17
I0
sg18
I00
sg19
I0
sg20
I0
sg21
I554422
sg22
I0
sg24
I0
ssS'WROBEL BRUCE'
p195
(dp196
g3
I0
sg4
I0
sg5
I0
sg6
I0
sg7
I139130
sg8
I0
sg9
I0
sg10
I0
sg11
I0
sg12
I139130
sg13
I0
sg14
I0
sg15
I0
sg16
I0
sg17
I0
sg18
I00
sg19
I0
sg20
I0
sg21
I0
sg22
I0
sg24
I0
ssS'LINDHOLM TOD A'
p197
(dp198
g3
I236457
sg4
I0
sg5
I204075
sg6
I875889
sg7
I2549361
sg8
I200000
sg9
I514847
sg10
I0
sg11
I0
sg12
I3064208
sg13
I57727
sg14
I0
sg15
I0
sg16
I2630
sg17
I0
sg18
I00
sg19
I0
sg20
I0
sg21
I175000
sg22
S'tod.lindholm@enron.com'
p199
sg24
I0
ssS'MEYER JEROME J'
p200
(dp201
g3
I0
sg4
I0
sg5
I0
sg6
I2151
sg7
I0
sg8
I0
sg9
I0
sg10
I0
sg11
I0
sg12
I0
sg13
I2151
sg14
I0
sg15
I0
sg16
I0
sg17
I0
sg18
I00
sg19
I38346
sg20
I-38346
sg21
I0
sg22
I0
sg24
I0
ssS'LAY KENNETH L'
p202
(dp203
g3
I1072321
sg4
I4273
sg5
I202911
sg6
I103559793
sg7
I34348384
sg8
I7000000
sg9
I14761694
sg10
I2411
sg11
I0
sg12
I49110078
sg13
I99832
sg14
I81525000
sg15
I36
sg16
I10359729
sg17
I16
sg18
I01
sg19
I0
sg20
I-300000
sg21
I3600000
sg22
S'kenneth.lay@enron.com'
p204
sg24
I123
ssS'BUTTS ROBERT H'
p205
(dp206
g3
I261516
sg4
I0
sg5
I0
sg6
I1271582
sg7
I0
sg8
I750000
sg9
I417619
sg10
I0
sg11
I0
sg12
I417619
sg13
I9410
sg14
I0
sg15
I0
sg16
I150656
sg17
I0
sg18
I00
sg19
I0
sg20
I-75000
sg21
I175000
sg22
S'bob.butts@enron.com'
p207
sg24
I0
ssS'OLSON CINDY K'
p208
(dp209
g3
I329078
sg4
I1184
sg5
I77716
sg6
I1321557
sg7
I1637034
sg8
I750000
sg9
I969729
sg10
I856
sg11
I0
sg12
I2606763
sg13
I63791
sg14
I0
sg15
I52
sg16
I972
sg17
I15
sg18
I00
sg19
I0
sg20
I0
sg21
I100000
sg22
S'cindy.olson@enron.com'
p210
sg24
I20
ssS'MCDONALD REBECCA'
p211
(dp212
g3
I0
sg4
I894
sg5
I0
sg6
I0
sg7
I757301
sg8
I0
sg9
I934065
sg10
I720
sg11
I0
sg12
I1691366
sg13
I0
sg14
I0
sg15
I13
sg16
I0
sg17
I1
sg18
I00
sg19
I0
sg20
I0
sg21
I0
sg22
S'rebecca.mcdonald@enron.com'
p213
sg24
I54
ssS'CUMBERLAND MICHAEL S'
p214
(dp215
g3
I184899
sg4
I0
sg5
I0
sg6
I807956
sg7
I0
sg8
I325000
sg9
I207940
sg10
I0
sg11
I0
sg12
I207940
sg13
I22344
sg14
I0
sg15
I0
sg16
I713
sg17
I0
sg18
I00
sg19
I0
sg20
I0
sg21
I275000
sg22
I0
sg24
I0
ssS'GAHN ROBERT S'
p216
(dp217
g3
I192008
sg4
I0
sg5
I73122
sg6
I900585
sg7
I83237
sg8
I509870
sg9
I235370
sg10
I0
sg11
I0
sg12
I318607
sg13
I50080
sg14
I0
sg15
I0
sg16
I76547
sg17
I0
sg18
I00
sg19
I0
sg20
I-1042
sg21
I0
sg22
I0
sg24
I0
ssS'MCCLELLAN GEORGE'
p218
(dp219
g3
I263413
sg4
I1744
sg5
I0
sg6
I1318763
sg7
I506765
sg8
I900000
sg9
I441096
sg10
I1469
sg11
I0
sg12
I947861
sg13
I228763
sg14
I0
sg15
I49
sg16
I51587
sg17
I0
sg18
I00
sg19
I0
sg20
I-125000
sg21
I0
sg22
S'george.mcclellan@enron.com'
p220
sg24
I52
ssS'HERMANN ROBERT J'
p221
(dp222
g3
I262663
sg4
I0
sg5
I0
sg6
I1297461
sg7
I187500
sg8
I700000
sg9
I480632
sg10
I0
sg11
I0
sg12
I668132
sg13
I48357
sg14
I0
sg15
I0
sg16
I416441
sg17
I0
sg18
I00
sg19
I0
sg20
I-280000
sg21
I150000
sg22
S'robert.hermann@enron.com'
p223
sg24
I0
ssS'SCRIMSHAW MATTHEW'
p224
(dp225
g3
I0
sg4
I0
sg5
I0
sg6
I0
sg7
I759557
sg8
I0
sg9
I0
sg10
I0
sg11
I0
sg12
I759557
sg13
I0
sg14
I0
sg15
I0
sg16
I0
sg17
I0
sg18
I00
sg19
I0
sg20
I0
sg21
I0
sg22
S'matthew.scrimshaw@enron.com'
p226
sg24
I0
ssS'GATHMANN WILLIAM D'
p227
(dp228
g3
I0
sg4
I0
sg5
I0
sg6
I0
sg7
I1753766
sg8
I0
sg9
I264013
sg10
I0
sg11
I-72419
sg12
I1945360
sg13
I0
sg14
I0
sg15
I0
sg16
I0
sg17
I0
sg18
I00
sg19
I0
sg20
I0
sg21
I0
sg22
I0
sg24
I0
ssS'HAEDICKE MARK E'
p229
(dp230
g3
I374125
sg4
I4009
sg5
I2157527
sg6
I3859065
sg7
I608750
sg8
I1150000
sg9
I524169
sg10
I1847
sg11
I-329825
sg12
I803094
sg13
I76169
sg14
I0
sg15
I1941
sg16
I52382
sg17
I61
sg18
I00
sg19
I0
sg20
I-934484
sg21
I983346
sg22
S'mark.haedicke@enron.com'
p231
sg24
I180
ssS'BOWEN JR RAYMOND M'
p232
(dp233
g3
I278601
sg4
I1858
sg5
I0
sg6
I2669589
sg7
I0
sg8
I1350000
sg9
I252055
sg10
I1593
sg11
I0
sg12
I252055
sg13
I65907
sg14
I0
sg15
I27
sg16
I1621
sg17
I15
sg18
I01
sg19
I0
sg20
I-833
sg21
I974293
sg22
S'raymond.bowen@enron.com'
p234
sg24
I140
ssS'GILLIS JOHN'
p235
(dp236
g3
I0
sg4
I0
sg5
I0
sg6
I0
sg7
I9803
sg8
I0
sg9
I75838
sg10
I0
sg11
I0
sg12
I85641
sg13
I0
sg14
I0
sg15
I0
sg16
I0
sg17
I0
sg18
I00
sg19
I0
sg20
I0
sg21
I0
sg22
I0
sg24
I0
ssS'FITZGERALD JAY L'
p237
(dp238
g3
I199157
sg4
I936
sg5
I0
sg6
I1414857
sg7
I664461
sg8
I350000
sg9
I956775
sg10
I723
sg11
I0
sg12
I1621236
sg13
I23870
sg14
I0
sg15
I16
sg16
I285414
sg17
I8
sg18
I00
sg19
I0
sg20
I0
sg21
I556416
sg22
S'jay.fitzgerald@enron.com'
p239
sg24
I1
ssS'MORAN MICHAEL P'
p240
(dp241
g3
I0
sg4
I672
sg5
I0
sg6
I0
sg7
I59539
sg8
I0
sg9
I161602
sg10
I127
sg11
I0
sg12
I221141
sg13
I0
sg14
I0
sg15
I19
sg16
I0
sg17
I0
sg18
I00
sg19
I0
sg20
I0
sg21
I0
sg22
S'michael.moran@enron.com'
p242
sg24
I0
ssS'REDMOND BRIAN L'
p243
(dp244
g3
I96840
sg4
I1671
sg5
I0
sg6
I111529
sg7
I7509039
sg8
I0
sg9
I381285
sg10
I1063
sg11
I0
sg12
I7890324
sg13
I14689
sg14
I0
sg15
I221
sg16
I0
sg17
I49
sg18
I00
sg19
I0
sg20
I0
sg21
I0
sg22
S'brian.redmond@enron.com'
p245
sg24
I204
ssS'BAZELIDES PHILIP J'
p246
(dp247
g3
I80818
sg4
I0
sg5
I684694
sg6
I860136
sg7
I1599641
sg8
I0
sg9
I0
sg10
I0
sg11
I0
sg12
I1599641
sg13
I0
sg14
I0
sg15
I0
sg16
I874
sg17
I0
sg18
I00
sg19
I0
sg20
I0
sg21
I93750
sg22
I0
sg24
I0
ssS'BELDEN TIMOTHY N'
p248
(dp249
g3
I213999
sg4
I7991
sg5
I2144013
sg6
I5501630
sg7
I953136
sg8
I5249999
sg9
I157569
sg10
I5521
sg11
I0
sg12
I1110705
sg13
I17355
sg14
I0
sg15
I484
sg16
I210698
sg17
I108
sg18
I01
sg19
I0
sg20
I-2334434
sg21
I0
sg22
S'tim.belden@enron.com'
p250
sg24
I228
ssS'DURAN WILLIAM D'
p251
(dp252
g3
I210692
sg4
I904
sg5
I0
sg6
I2093263
sg7
I1451869
sg8
I750000
sg9
I189041
sg10
I599
sg11
I0
sg12
I1640910
sg13
I25785
sg14
I0
sg15
I12
sg16
I1568
sg17
I3
sg18
I00
sg19
I0
sg20
I0
sg21
I1105218
sg22
S'w.duran@enron.com'
p253
sg24
I106
ssS'THORN TERENCE H'
p254
(dp255
g3
I222093
sg4
I266
sg5
I16586
sg6
I911453
sg7
I4452476
sg8
I0
sg9
I365320
sg10
I73
sg11
I0
sg12
I4817796
sg13
I46145
sg14
I0
sg15
I41
sg16
I426629
sg17
I0
sg18
I00
sg19
I0
sg20
I0
sg21
I200000
sg22
S'terence.thorn@enron.com'
p256
sg24
I0
ssS'FASTOW ANDREW S'
p257
(dp258
g3
I440698
sg4
I0
sg5
I0
sg6
I2424083
sg7
I0
sg8
I1300000
sg9
I1794412
sg10
I0
sg11
I0
sg12
I1794412
sg13
I55921
sg14
I0
sg15
I0
sg16
I277464
sg17
I0
sg18
I01
sg19
I0
sg20
I-1386055
sg21
I1736055
sg22
S'andrew.fastow@enron.com'
p259
sg24
I0
ssS'FOY JOE'
p260
(dp261
g3
I0
sg4
I57
sg5
I181755
sg6
I181755
sg7
I343434
sg8
I0
sg9
I0
sg10
I2
sg11
I0
sg12
I343434
sg13
I0
sg14
I0
sg15
I13
sg16
I0
sg17
I0
sg18
I00
sg19
I0
sg20
I0
sg21
I0
sg22
S'tracy.foy@enron.com'
p262
sg24
I0
ssS'CALGER CHRISTOPHER F'
p263
(dp264
g3
I240189
sg4
I2598
sg5
I0
sg6
I1639297
sg7
I0
sg8
I1250000
sg9
I126027
sg10
I2188
sg11
I0
sg12
I126027
sg13
I35818
sg14
I0
sg15
I144
sg16
I486
sg17
I25
sg18
I01
sg19
I0
sg20
I-262500
sg21
I375304
sg22
S'christopher.calger@enron.com'
p265
sg24
I199
ssS'RICE KENNETH D'
p266
(dp267
g3
I420636
sg4
I905
sg5
I0
sg6
I505050
sg7
I19794175
sg8
I1750000
sg9
I2748364
sg10
I864
sg11
I0
sg12
I22542539
sg13
I46950
sg14
I0
sg15
I18
sg16
I174839
sg17
I4
sg18
I01
sg19
I0
sg20
I-3504386
sg21
I1617011
sg22
S'ken.rice@enron.com'
p268
sg24
I42
ssS'KAMINSKI WINCENTY J'
p269
(dp270
g3
I275101
sg4
I4607
sg5
I0
sg6
I1086821
sg7
I850010
sg8
I400000
sg9
I126027
sg10
I583
sg11
I0
sg12
I976037
sg13
I83585
sg14
I0
sg15
I14368
sg16
I4669
sg17
I171
sg18
I00
sg19
I0
sg20
I0
sg21
I323466
sg22
S'vince.kaminski@enron.com'
p271
sg24
I41
ssS'LOCKHART EUGENE E'
p272
(dp273
g3
I0
sg4
I0
sg5
I0
sg6
I0
sg7
I0
sg8
I0
sg9
I0
sg10
I0
sg11
I0
sg12
I0
sg13
I0
sg14
I0
sg15
I0
sg16
I0
sg17
I0
sg18
I00
sg19
I0
sg20
I0
sg21
I0
sg22
I0
sg24
I0
ssS'COX DAVID'
p274
(dp275
g3
I314288
sg4
I102
sg5
I0
sg6
I1101393
sg7
I117551
sg8
I800000
sg9
I378082
sg10
I71
sg11
I0
sg12
I495633
sg13
I27861
sg14
I0
sg15
I33
sg16
I494
sg17
I4
sg18
I00
sg19
I0
sg20
I-41250
sg21
I0
sg22
S'chip.cox@enron.com'
p276
sg24
I0
ssS'OVERDYKE JR JERE C'
p277
(dp278
g3
I94941
sg4
I0
sg5
I0
sg6
I249787
sg7
I5266578
sg8
I0
sg9
I2041016
sg10
I0
sg11
I0
sg12
I7307594
sg13
I18834
sg14
I0
sg15
I0
sg16
I176
sg17
I0
sg18
I00
sg19
I0
sg20
I0
sg21
I135836
sg22
S'jere.overdyke@enron.com'
p279
sg24
I0
ssS'PEREIRA PAULO V. FERRAZ'
p280
(dp281
g3
I0
sg4
I0
sg5
I0
sg6
I27942
sg7
I0
sg8
I0
sg9
I0
sg10
I0
sg11
I0
sg12
I0
sg13
I27942
sg14
I0
sg15
I0
sg16
I0
sg17
I0
sg18
I00
sg19
I101250
sg20
I-101250
sg21
I0
sg22
I0
sg24
I0
ssS'STABLER FRANK'
p282
(dp283
g3
I239502
sg4
I0
sg5
I0
sg6
I1112087
sg7
I0
sg8
I500000
sg9
I511734
sg10
I0
sg11
I0
sg12
I511734
sg13
I16514
sg14
I0
sg15
I0
sg16
I356071
sg17
I0
sg18
I00
sg19
I0
sg20
I0
sg21
I0
sg22
S'frank.stabler@enron.com'
p284
sg24
I0
ssS'SKILLING JEFFREY K'
p285
(dp286
g3
I1111258
sg4
I3627
sg5
I0
sg6
I8682716
sg7
I19250000
sg8
I5600000
sg9
I6843672
sg10
I2042
sg11
I0
sg12
I26093672
sg13
I29336
sg14
I0
sg15
I108
sg16
I22122
sg17
I30
sg18
I01
sg19
I0
sg20
I0
sg21
I1920000
sg22
S'jeff.skilling@enron.com'
p287
sg24
I88
ssS'BLAKE JR. NORMAN P'
p288
(dp289
g3
I0
sg4
I0
sg5
I0
sg6
I1279
sg7
I0
sg8
I0
sg9
I0
sg10
I0
sg11
I0
sg12
I0
sg13
I1279
sg14
I0
sg15
I0
sg16
I0
sg17
I0
sg18
I00
sg19
I113784
sg20
I-113784
sg21
I0
sg22
I0
sg24
I0
ssS'SHERRICK JEFFREY B'
p290
(dp291
g3
I0
sg4
I613
sg5
I0
sg6
I0
sg7
I1426469
sg8
I0
sg9
I405999
sg10
I583
sg11
I0
sg12
I1832468
sg13
I0
sg14
I0
sg15
I25
sg16
I0
sg17
I18
sg18
I00
sg19
I0
sg20
I0
sg21
I0
sg22
S'jeffrey.sherrick@enron.com'
p292
sg24
I39
ssS'PRENTICE JAMES'
p293
(dp294
g3
I0
sg4
I0
sg5
I564348
sg6
I564348
sg7
I886231
sg8
I0
sg9
I208809
sg10
I0
sg11
I0
sg12
I1095040
sg13
I0
sg14
I0
sg15
I0
sg16
I0
sg17
I0
sg18
I00
sg19
I0
sg20
I0
sg21
I0
sg22
S'james.prentice@enron.com'
p295
sg24
I0
ssS'GRAY RODNEY'
p296
(dp297
g3
I6615
sg4
I0
sg5
I93585
sg6
I1146658
sg7
I0
sg8
I0
sg9
I0
sg10
I0
sg11
I0
sg12
I0
sg13
I0
sg14
I0
sg15
I0
sg16
I680833
sg17
I0
sg18
I00
sg19
I0
sg20
I0
sg21
I365625
sg22
I0
sg24
I0
ssS'PICKERING MARK R'
p298
(dp299
g3
I655037
sg4
I898
sg5
I0
sg6
I1386690
sg7
I28798
sg8
I300000
sg9
I0
sg10
I728
sg11
I0
sg12
I28798
sg13
I31653
sg14
I400000
sg15
I67
sg16
I0
sg17
I0
sg18
I00
sg19
I0
sg20
I0
sg21
I0
sg22
S'mark.pickering@enron.com'
p300
sg24
I7
ssS'THE TRAVEL AGENCY IN THE PARK'
p301
(dp302
g3
I0
sg4
I0
sg5
I0
sg6
I362096
sg7
I0
sg8
I0
sg9
I0
sg10
I0
sg11
I0
sg12
I0
sg13
I0
sg14
I0
sg15
I0
sg16
I362096
sg17
I0
sg18
I00
sg19
I0
sg20
I0
sg21
I0
sg22
I0
sg24
I0
ssS'NOLES JAMES L'
p303
(dp304
g3
I0
sg4
I0
sg5
I774401
sg6
I774401
sg7
I0
sg8
I0
sg9
I463261
sg10
I0
sg11
I-94556
sg12
I368705
sg13
I0
sg14
I0
sg15
I0
sg16
I0
sg17
I0
sg18
I00
sg19
I0
sg20
I0
sg21
I0
sg22
I0
sg24
I0
ssS'KEAN STEVEN J'
p305
(dp306
g3
I404338
sg4
I12754
sg5
I0
sg6
I1747522
sg7
I2022048
sg8
I1000000
sg9
I4131594
sg10
I3639
sg11
I0
sg12
I6153642
sg13
I41953
sg14
I0
sg15
I6759
sg16
I1231
sg17
I387
sg18
I00
sg19
I0
sg20
I0
sg21
I300000
sg22
S'steven.kean@enron.com'
p307
sg24
I140
ssS'FOWLER PEGGY'
p308
(dp309
g3
I0
sg4
I517
sg5
I0
sg6
I0
sg7
I1324578
sg8
I0
sg9
I560170
sg10
I10
sg11
I0
sg12
I1884748
sg13
I0
sg14
I0
sg15
I36
sg16
I0
sg17
I0
sg18
I00
sg19
I0
sg20
I0
sg21
I0
sg22
S'kulvinder.fowler@enron.com'
p310
sg24
I0
ssS'WASAFF GEORGE'
p311
(dp312
g3
I259996
sg4
I400
sg5
I831299
sg6
I1034395
sg7
I1668260
sg8
I325000
sg9
I388167
sg10
I337
sg11
I0
sg12
I2056427
sg13
I0
sg14
I0
sg15
I30
sg16
I1425
sg17
I7
sg18
I00
sg19
I0
sg20
I-583325
sg21
I200000
sg22
S'george.wasaff@enron.com'
p313
sg24
I22
ssS'WHITE JR THOMAS E'
p314
(dp315
g3
I317543
sg4
I0
sg5
I0
sg6
I1934359
sg7
I1297049
sg8
I450000
sg9
I13847074
sg10
I0
sg11
I0
sg12
I15144123
sg13
I81353
sg14
I0
sg15
I0
sg16
I1085463
sg17
I0
sg18
I00
sg19
I0
sg20
I0
sg21
I0
sg22
S'thomas.white@enron.com'
p316
sg24
I0
ssS'CHRISTODOULOU DIOMEDES'
p317
(dp318
g3
I0
sg4
I0
sg5
I0
sg6
I0
sg7
I5127155
sg8
I0
sg9
I950730
sg10
I0
sg11
I0
sg12
I6077885
sg13
I0
sg14
I0
sg15
I0
sg16
I0
sg17
I0
sg18
I00
sg19
I0
sg20
I0
sg21
I0
sg22
S'diomedes.christodoulou@enron.com'
p319
sg24
I0
ssS'ALLEN PHILLIP K'
p320
(dp321
g3
I201955
sg4
I2902
sg5
I2869717
sg6
I4484442
sg7
I1729541
sg8
I4175000
sg9
I126027
sg10
I1407
sg11
I-126027
sg12
I1729541
sg13
I13868
sg14
I0
sg15
I2195
sg16
I152
sg17
I65
sg18
I00
sg19
I0
sg20
I-3081055
sg21
I304805
sg22
S'phillip.allen@enron.com'
p322
sg24
I47
ssS'SHARP VICTORIA T'
p323
(dp324
g3
I248146
sg4
I3136
sg5
I187469
sg6
I1576511
sg7
I281073
sg8
I600000
sg9
I213063
sg10
I2477
sg11
I0
sg12
I494136
sg13
I116337
sg14
I0
sg15
I136
sg16
I2401
sg17
I6
sg18
I00
sg19
I0
sg20
I0
sg21
I422158
sg22
S'vicki.sharp@enron.com'
p325
sg24
I24
ssS'JAEDICKE ROBERT'
p326
(dp327
g3
I0
sg4
I0
sg5
I0
sg6
I83750
sg7
I431750
sg8
I0
sg9
I44093
sg10
I0
sg11
I-44093
sg12
I431750
sg13
I0
sg14
I0
sg15
I0
sg16
I0
sg17
I0
sg18
I00
sg19
I108750
sg20
I-25000
sg21
I0
sg22
I0
sg24
I0
ssS'WINOKUR JR. HERBERT S'
p328
(dp329
g3
I0
sg4
I0
sg5
I0
sg6
I84992
sg7
I0
sg8
I0
sg9
I0
sg10
I0
sg11
I0
sg12
I0
sg13
I1413
sg14
I0
sg15
I0
sg16
I0
sg17
I0
sg18
I00
sg19
I108579
sg20
I-25000
sg21
I0
sg22
I0
sg24
I0
ssS'BROWN MICHAEL'
p330
(dp331
g3
I0
sg4
I1486
sg5
I0
sg6
I49288
sg7
I0
sg8
I0
sg9
I0
sg10
I761
sg11
I0
sg12
I0
sg13
I49288
sg14
I0
sg15
I41
sg16
I0
sg17
I1
sg18
I00
sg19
I0
sg20
I0
sg21
I0
sg22
S'michael.brown@enron.com'
p332
sg24
I13
ssS'BADUM JAMES P'
p333
(dp334
g3
I0
sg4
I0
sg5
I178980
sg6
I182466
sg7
I257817
sg8
I0
sg9
I0
sg10
I0
sg11
I0
sg12
I257817
sg13
I3486
sg14
I0
sg15
I0
sg16
I0
sg17
I0
sg18
I00
sg19
I0
sg20
I0
sg21
I0
sg22
I0
sg24
I0
ssS'HUGHES JAMES A'
p335
(dp336
g3
I0
sg4
I719
sg5
I0
sg6
I0
sg7
I754966
sg8
I0
sg9
I363428
sg10
I589
sg11
I0
sg12
I1118394
sg13
I0
sg14
I0
sg15
I34
sg16
I0
sg17
I5
sg18
I00
sg19
I0
sg20
I0
sg21
I0
sg22
S'james.hughes@enron.com'
p337
sg24
I35
ssS'REYNOLDS LAWRENCE'
p338
(dp339
g3
I76399
sg4
I0
sg5
I51365
sg6
I394475
sg7
I4160672
sg8
I100000
sg9
I201483
sg10
I0
sg11
I-140264
sg12
I4221891
sg13
I8409
sg14
I0
sg15
I0
sg16
I202052
sg17
I0
sg18
I00
sg19
I0
sg20
I-200000
sg21
I156250
sg22
I0
sg24
I0
ssS'DIMICHELE RICHARD G'
p340
(dp341
g3
I262788
sg4
I0
sg5
I0
sg6
I2368151
sg7
I8191755
sg8
I1000000
sg9
I126027
sg10
I0
sg11
I0
sg12
I8317782
sg13
I35812
sg14
I0
sg15
I0
sg16
I374689
sg17
I0
sg18
I00
sg19
I0
sg20
I0
sg21
I694862
sg22
S'richard.dimichele@enron.com'
p342
sg24
I0
ssS'BHATNAGAR SANJAY'
p343
(dp344
g3
I0
sg4
I523
sg5
I0
sg6
I15456290
sg7
I2604490
sg8
I0
sg9
I-2604490
sg10
I463
sg11
I15456290
sS'total_stock_value'
p345
I0
sg13
I0
sg14
I0
sg15
I29
sg16
I137864
sg17
I1
sg18
I00
sg19
I137864
sg20
I0
sg21
I0
sg22
S'sanjay.bhatnagar@enron.com'
p346
sg24
I0
ssS'CARTER REBECCA C'
p347
(dp348
g3
I261809
sg4
I312
sg5
I0
sg6
I477557
sg7
I0
sg8
I300000
sg9
I307301
sg10
I196
sg11
I-307301
sg12
I0
sg13
I0
sg14
I0
sg15
I15
sg16
I540
sg17
I7
sg18
I00
sg19
I0
sg20
I-159792
sg21
I75000
sg22
S'rebecca.carter@enron.com'
p349
sg24
I29
ssS'BUCHANAN HAROLD G'
p350
(dp351
g3
I248017
sg4
I1088
sg5
I0
sg6
I1054637
sg7
I825464
sg8
I500000
sg9
I189041
sg10
I23
sg11
I0
sg12
I1014505
sg13
I600
sg14
I0
sg15
I125
sg16
I1215
sg17
I0
sg18
I00
sg19
I0
sg20
I0
sg21
I304805
sg22
S'john.buchanan@enron.com'
p352
sg24
I0
ssS'YEAP SOON'
p353
(dp354
g3
I0
sg4
I0
sg5
I0
sg6
I55097
sg7
I192758
sg8
I0
sg9
I0
sg10
I0
sg11
I0
sg12
I192758
sg13
I55097
sg14
I0
sg15
I0
sg16
I0
sg17
I0
sg18
I00
sg19
I0
sg20
I0
sg21
I0
sg22
I0
sg24
I0
ssS'MURRAY JULIA H'
p355
(dp356
g3
I229284
sg4
I2192
sg5
I0
sg6
I812194
sg7
I400478
sg8
I400000
sg9
I196983
sg10
I395
sg11
I0
sg12
I597461
sg13
I57580
sg14
I0
sg15
I45
sg16
I330
sg17
I2
sg18
I00
sg19
I0
sg20
I0
sg21
I125000
sg22
S'julia.murray@enron.com'
p357
sg24
I11
ssS'GARLAND C KEVIN'
p358
(dp359
g3
I231946
sg4
I209
sg5
I0
sg6
I1566469
sg7
I636246
sg8
I850000
sg9
I259907
sg10
I178
sg11
I0
sg12
I896153
sg13
I48405
sg14
I0
sg15
I44
sg16
I60814
sg17
I27
sg18
I00
sg19
I0
sg20
I0
sg21
I375304
sg22
S'kevin.garland@enron.com'
p360
sg24
I10
ssS'DODSON KEITH'
p361
(dp362
g3
I221003
sg4
I176
sg5
I0
sg6
I319941
sg7
I0
sg8
I70000
sg9
I0
sg10
I114
sg11
I0
sg12
I0
sg13
I28164
sg14
I0
sg15
I14
sg16
I774
sg17
I3
sg18
I00
sg19
I0
sg20
I0
sg21
I0
sg22
S'keith.dodson@enron.com'
p363
sg24
I10
ssS'YEAGER F SCOTT'
p364
(dp365
g3
I158403
sg4
I0
sg5
I0
sg6
I360300
sg7
I8308552
sg8
I0
sg9
I3576206
sg10
I0
sg11
I0
sg12
I11884758
sg13
I53947
sg14
I0
sg15
I0
sg16
I147950
sg17
I0
sg18
I01
sg19
I0
sg20
I0
sg21
I0
sg22
S'scott.yeager@enron.com'
p366
sg24
I0
ssS'HIRKO JOSEPH'
p367
(dp368
g3
I0
sg4
I0
sg5
I10259
sg6
I91093
sg7
I30766064
sg8
I0
sg9
I0
sg10
I0
sg11
I0
sg12
I30766064
sg13
I77978
sg14
I0
sg15
I0
sg16
I2856
sg17
I0
sg18
I01
sg19
I0
sg20
I0
sg21
I0
sg22
S'joe.hirko@enron.com'
p369
sg24
I0
ssS'DIETRICH JANET R'
p370
(dp371
g3
I250100
sg4
I2572
sg5
I0
sg6
I1410464
sg7
I1550019
sg8
I600000
sg9
I315068
sg10
I1902
sg11
I0
sg12
I1865087
sg13
I3475
sg14
I0
sg15
I63
sg16
I473
sg17
I14
sg18
I00
sg19
I0
sg20
I0
sg21
I556416
sg22
S'janet.dietrich@enron.com'
p372
sg24
I305
ssS'DERRICK JR. JAMES V'
p373
(dp374
g3
I492375
sg4
I2181
sg5
I0
sg6
I550981
sg7
I8831913
sg8
I800000
sg9
I1787380
sg10
I1401
sg11
I-1787380
sg12
I8831913
sg13
I51124
sg14
I0
sg15
I909
sg16
I7482
sg17
I20
sg18
I00
sg19
I0
sg20
I-1284000
sg21
I484000
sg22
S'james.derrick@enron.com'
p375
sg24
I64
ssS'FREVERT MARK A'
p376
(dp377
g3
I1060932
sg4
I3275
sg5
I6426990
sg6
I17252530
sg7
I10433518
sg8
I2000000
sg9
I4188667
sg10
I2979
sg11
I0
sg12
I14622185
sg13
I86987
sg14
I2000000
sg15
I21
sg16
I7427621
sg17
I6
sg18
I00
sg19
I0
sg20
I-3367011
sg21
I1617011
sg22
S'mark.frevert@enron.com'
p378
sg24
I242
ssS'PAI LOU L'
p379
(dp380
g3
I261879
sg4
I0
sg5
I0
sg6
I3123383
sg7
I15364167
sg8
I1000000
sg9
I8453763
sg10
I0
sg11
I0
sg12
I23817930
sg13
I32047
sg14
I0
sg15
I0
sg16
I1829457
sg17
I0
sg18
I00
sg19
I0
sg20
I0
sg21
I0
sg22
S'lou.pai@enron.com'
p381
sg24
I0
ssS'BAY FRANKLIN R'
p382
(dp383
g3
I239671
sg4
I0
sg5
I260455
sg6
I827696
sg7
I0
sg8
I400000
sg9
I145796
sg10
I0
sg11
I-82782
sg12
I63014
sg13
I129142
sg14
I0
sg15
I0
sg16
I69
sg17
I0
sg18
I00
sg19
I0
sg20
I-201641
sg21
I0
sg22
S'frank.bay@enron.com'
p384
sg24
I0
ssS'HAYSLETT RODERICK J'
p385
(dp386
g3
I0
sg4
I2649
sg5
I0
sg6
I0
sg7
I0
sg8
I0
sg9
I346663
sg10
I571
sg11
I0
sg12
I346663
sg13
I0
sg14
I0
sg15
I1061
sg16
I0
sg17
I38
sg18
I00
sg19
I0
sg20
I0
sg21
I0
sg22
S'rod.hayslett@enron.com'
p387
sg24
I35
ssS'FUGH JOHN L'
p388
(dp389
g3
I0
sg4
I0
sg5
I50591
sg6
I50591
sg7
I176378
sg8
I0
sg9
I0
sg10
I0
sg11
I0
sg12
I176378
sg13
I0
sg14
I0
sg15
I0
sg16
I0
sg17
I0
sg18
I00
sg19
I0
sg20
I0
sg21
I0
sg22
I0
sg24
I0
ssS'FALLON JAMES B'
p390
(dp391
g3
I304588
sg4
I1755
sg5
I0
sg6
I3676340
sg7
I940257
sg8
I2500000
sg9
I1392142
sg10
I1604
sg11
I0
sg12
I2332399
sg13
I95924
sg14
I0
sg15
I75
sg16
I401481
sg17
I37
sg18
I00
sg19
I0
sg20
I0
sg21
I374347
sg22
S'jim.fallon@enron.com'
p392
sg24
I42
ssS'KOENIG MARK E'
p393
(dp394
g3
I309946
sg4
I2374
sg5
I0
sg6
I1587421
sg7
I671737
sg8
I700000
sg9
I1248318
sg10
I2271
sg11
I0
sg12
I1920055
sg13
I127017
sg14
I0
sg15
I61
sg16
I150458
sg17
I15
sg18
I01
sg19
I0
sg20
I0
sg21
I300000
sg22
S'mark.koenig@enron.com'
p395
sg24
I53
ssS'SAVAGE FRANK'
p396
(dp397
g3
I0
sg4
I0
sg5
I0
sg6
I3750
sg7
I0
sg8
I0
sg9
I0
sg10
I0
sg11
I0
sg12
I0
sg13
I0
sg14
I0
sg15
I0
sg16
I0
sg17
I0
sg18
I00
sg19
I125034
sg20
I-121284
sg21
I0
sg22
I0
sg24
I0
ssS'IZZO LAWRENCE L'
p398
(dp399
g3
I85274
sg4
I496
sg5
I0
sg6
I1979596
sg7
I2165172
sg8
I0
sg9
I3654808
sg10
I437
sg11
I0
sg12
I5819980
sg13
I28093
sg14
I0
sg15
I19
sg16
I1553729
sg17
I5
sg18
I00
sg19
I0
sg20
I0
sg21
I312500
sg22
S'larry.izzo@enron.com'
p400
sg24
I28
ssS'TILNEY ELIZABETH A'
p401
(dp402
g3
I247338
sg4
I460
sg5
I0
sg6
I399393
sg7
I591250
sg8
I300000
sg9
I576792
sg10
I379
sg11
I0
sg12
I1168042
sg13
I0
sg14
I0
sg15
I19
sg16
I152055
sg17
I11
sg18
I00
sg19
I0
sg20
I-575000
sg21
I275000
sg22
S'elizabeth.tilney@enron.com'
p403
sg24
I10
ssS'MARTIN AMANDA K'
p404
(dp405
g3
I349487
sg4
I1522
sg5
I85430
sg6
I8407016
sg7
I2070306
sg8
I0
sg9
I0
sg10
I477
sg11
I0
sg12
I2070306
sg13
I8211
sg14
I0
sg15
I230
sg16
I2818454
sg17
I0
sg18
I00
sg19
I0
sg20
I0
sg21
I5145434
sg22
S'a..martin@enron.com'
p406
sg24
I8
ssS'BUY RICHARD B'
p407
(dp408
g3
I330546
sg4
I3523
sg5
I649584
sg6
I2355702
sg7
I2542813
sg8
I900000
sg9
I901657
sg10
I2333
sg11
I0
sg12
I3444470
sg13
I0
sg14
I0
sg15
I1053
sg16
I400572
sg17
I71
sg18
I00
sg19
I0
sg20
I-694862
sg21
I769862
sg22
S'rick.buy@enron.com'
p409
sg24
I156
ssS'GRAMM WENDY L'
p410
(dp411
g3
I0
sg4
I0
sg5
I0
sg6
I119292
sg7
I0
sg8
I0
sg9
I0
sg10
I0
sg11
I0
sg12
I0
sg13
I0
sg14
I0
sg15
I0
sg16
I0
sg17
I0
sg18
I00
sg19
I119292
sg20
I0
sg21
I0
sg22
I0
sg24
I0
ssS'CAUSEY RICHARD A'
p412
(dp413
g3
I415189
sg4
I1892
sg5
I0
sg6
I1868758
sg7
I0
sg8
I1000000
sg9
I2502063
sg10
I1585
sg11
I0
sg12
I2502063
sg13
I30674
sg14
I0
sg15
I49
sg16
I307895
sg17
I12
sg18
I01
sg19
I0
sg20
I-235000
sg21
I350000
sg22
S'richard.causey@enron.com'
p414
sg24
I58
ssS'TAYLOR MITCHELL S'
p415
(dp416
g3
I265214
sg4
I533
sg5
I227449
sg6
I1092663
sg7
I3181250
sg8
I600000
sg9
I563798
sg10
I300
sg11
I0
sg12
I3745048
sg13
I0
sg14
I0
sg15
I29
sg16
I0
sg17
I0
sg18
I00
sg19
I0
sg20
I0
sg21
I0
sg22
S'mitchell.taylor@enron.com'
p417
sg24
I0
ssS'DONAHUE JR JEFFREY M'
p418
(dp419
g3
I278601
sg4
I865
sg5
I0
sg6
I875760
sg7
I765920
sg8
I800000
sg9
I315068
sg10
I772
sg11
I0
sg12
I1080988
sg13
I96268
sg14
I0
sg15
I22
sg16
I891
sg17
I11
sg18
I00
sg19
I0
sg20
I-300000
sg21
I0
sg22
S'jeff.donahue@enron.com'
p420
sg24
I188
ssS'GLISAN JR BEN F'
p421
(dp422
g3
I274975
sg4
I873
sg5
I0
sg6
I1272284
sg7
I384728
sg8
I600000
sg9
I393818
sg10
I874
sg11
I0
sg12
I778546
sg13
I125978
sg14
I0
sg15
I16
sg16
I200308
sg17
I6
sg18
I01
sg19
I0
sg20
I0
sg21
I71023
sg22
S'ben.glisan@enron.com'
p423
sg24
I52
ss.