(dp0
S'METTS MARK'
p1
(dp2
S'to_messages'
p3
I807
sS'deferral_payments'
p4
I0
sS'expenses'
p5
I94299
sS'poi'
p6
I00
sS'deferred_income'
p7
I0
sS'email_address'
p8
S'mark.metts@enron.com'
p9
sS'long_term_incentive'
p10
I0
sS'restricted_stock_deferred'
p11
I0
sS'shared_receipt_with_poi'
p12
I702
sS'loan_advances'
p13
I0
sS'from_messages'
p14
I29
sS'to_fraction'
p15
F0.04708798017348203
sS'from_fraction'
p16
F0.034482758620689655
sS'director_fees'
p17
I0
sS'bonus'
p18
I600000
sS'total_stock_value'
p19
I585062
sS'from_poi_to_this_person'
p20
I38
sS'from_this_person_to_poi'
p21
I1
sS'restricted_stock'
p22
I585062
sS'salary'
p23
I365788
sS'total_payments'
p24
I1061827
sS'exercised_stock_options'
p25
I0
sS'other'
p26
I1740
ssS'BAXTER JOHN C'
p27
(dp28
g3
I0
sg4
I1295738
sg5
I11200
sg6
I00
sg7
I-1386055
sg8
I0
sg10
I1586055
sg11
I0
sg12
I0
sg13
I0
sg14
I0
sg15
I0
sg16
I0
sg17
I0
sg18
I1200000
sg19
I10623258
sg20
I0
sg21
I0
sg22
I3942714
sg23
I267102
sg24
I5634343
sg25
I6680544
sg26
I2660303
ssS'ELLIOTT STEVEN'
p29
(dp30
g3
I0
sg4
I0
sg5
I78552
sg6
I00
sg7
I-400729
sg8
S'steven.elliott@enron.com'
p31
sg10
I0
sg11
I0
sg12
I0
sg13
I0
sg14
I0
sg15
I0
sg16
I0
sg17
I0
sg18
I350000
sg19
I6678735
sg20
I0
sg21
I0
sg22
I1788391
sg23
I170941
sg24
I211725
sg25
I4890344
sg26
I12961
ssS'CORDES WILLIAM R'
p32
(dp33
g3
I764
sg4
I0
sg5
I0
sg6
I00
sg7
I0
sg8
S'bill.cordes@enron.com'
p34
sg10
I0
sg11
I0
sg12
I58
sg13
I0
sg14
I12
sg15
F0.013089005235602094
sg16
F0.0
sg17
I0
sg18
I0
sg19
I1038185
sg20
I10
sg21
I0
sg22
I386335
sg23
I0
sg24
I0
sg25
I651850
sg26
I0
ssS'HANNON KEVIN P'
p35
(dp36
g3
I1045
sg4
I0
sg5
I34039
sg6
I01
sg7
I-3117011
sg8
S'kevin.hannon@enron.com'
p37
sg10
I1617011
sg11
I0
sg12
I1035
sg13
I0
sg14
I32
sg15
F0.03062200956937799
sg16
F0.65625
sg17
I0
sg18
I1500000
sg19
I6391065
sg20
I32
sg21
I21
sg22
I853064
sg23
I243293
sg24
I288682
sg25
I5538001
sg26
I11350
ssS'MORDAUNT KRISTINA M'
p38
(dp39
g3
I0
sg4
I0
sg5
I35018
sg6
I00
sg7
I0
sg8
S'kristina.mordaunt@enron.com'
p40
sg10
I0
sg11
I0
sg12
I0
sg13
I0
sg14
I0
sg15
I0
sg16
I0
sg17
I0
sg18
I325000
sg19
I208510
sg20
I0
sg21
I0
sg22
I208510
sg23
I267093
sg24
I628522
sg25
I0
sg26
I1411
ssS'MEYER ROCKFORD G'
p41
(dp42
g3
I232
sg4
I1848227
sg5
I0
sg6
I00
sg7
I0
sg8
S'rockford.meyer@enron.com'
p43
sg10
I0
sg11
I0
sg12
I22
sg13
I0
sg14
I28
sg15
F0.0
sg16
F0.0
sg17
I0
sg18
I0
sg19
I955873
sg20
I0
sg21
I0
sg22
I462384
sg23
I0
sg24
I1848227
sg25
I493489
sg26
I0
ssS'MCMAHON JEFFREY'
p44
(dp45
g3
I2355
sg4
I0
sg5
I137108
sg6
I00
sg7
I0
sg8
S'jeffrey.mcmahon@enron.com'
p46
sg10
I694862
sg11
I0
sg12
I2228
sg13
I0
sg14
I48
sg15
F0.024628450106157114
sg16
F0.5416666666666666
sg17
I0
sg18
I2600000
sg19
I1662855
sg20
I58
sg21
I26
sg22
I558801
sg23
I370448
sg24
I4099771
sg25
I1104054
sg26
I297353
ssS'HORTON STANLEY C'
p47
(dp48
g3
I2350
sg4
I3131860
sg5
I0
sg6
I00
sg7
I0
sg8
S'stanley.horton@enron.com'
p49
sg10
I0
sg11
I0
sg12
I1074
sg13
I0
sg14
I1073
sg15
F0.01872340425531915
sg16
F0.013979496738117428
sg17
I0
sg18
I0
sg19
I7256648
sg20
I44
sg21
I15
sg22
I2046079
sg23
I0
sg24
I3131860
sg25
I5210569
sg26
I0
ssS'PIPER GREGORY F'
p50
(dp51
g3
I1238
sg4
I1130036
sg5
I43057
sg6
I00
sg7
I-33333
sg8
S'greg.piper@enron.com'
p52
sg10
I0
sg11
I-409554
sg12
I742
sg13
I0
sg14
I222
sg15
F0.049273021001615507
sg16
F0.21621621621621623
sg17
I0
sg18
I400000
sg19
I880290
sg20
I61
sg21
I48
sg22
I409554
sg23
I197091
sg24
I1737629
sg25
I880290
sg26
I778
ssS'HUMPHREY GENE E'
p53
(dp54
g3
I128
sg4
I2964506
sg5
I4994
sg6
I00
sg7
I0
sg8
S'gene.humphrey@enron.com'
p55
sg10
I0
sg11
I0
sg12
I119
sg13
I0
sg14
I17
sg15
F0.078125
sg16
F1.0
sg17
I0
sg18
I0
sg19
I2282768
sg20
I10
sg21
I17
sg22
I0
sg23
I130724
sg24
I3100224
sg25
I2282768
sg26
I0
ssS'UMANOFF ADAM S'
p56
(dp57
g3
I111
sg4
I0
sg5
I53122
sg6
I00
sg7
I0
sg8
S'adam.umanoff@enron.com'
p58
sg10
I0
sg11
I0
sg12
I41
sg13
I0
sg14
I18
sg15
F0.10810810810810811
sg16
F0.0
sg17
I0
sg18
I788750
sg19
I0
sg20
I12
sg21
I0
sg22
I0
sg23
I288589
sg24
I1130461
sg25
I0
sg26
I0
ssS'BLACHMAN JEREMY M'
p59
(dp60
g3
I2475
sg4
I0
sg5
I84208
sg6
I00
sg7
I0
sg8
S'jeremy.blachman@enron.com'
p61
sg10
I831809
sg11
I0
sg12
I2326
sg13
I0
sg14
I14
sg15
F0.010101010101010102
sg16
F0.14285714285714285
sg17
I0
sg18
I850000
sg19
I954354
sg20
I25
sg21
I2
sg22
I189041
sg23
I248546
sg24
I2014835
sg25
I765313
sg26
I272
ssS'SUNDE MARTIN'
p62
(dp63
g3
I2647
sg4
I0
sg5
I0
sg6
I00
sg7
I0
sg8
S'marty.sunde@enron.com'
p64
sg10
I476451
sg11
I0
sg12
I2565
sg13
I0
sg14
I38
sg15
F0.013978088401964487
sg16
F0.34210526315789475
sg17
I0
sg18
I700000
sg19
I698920
sg20
I37
sg21
I13
sg22
I698920
sg23
I257486
sg24
I1545059
sg25
I0
sg26
I111122
ssS'GIBBS DANA R'
p65
(dp66
g3
I169
sg4
I504610
sg5
I0
sg6
I00
sg7
I0
sg8
S'dana.gibbs@enron.com'
p67
sg10
I461912
sg11
I0
sg12
I23
sg13
I0
sg14
I12
sg15
F0.0
sg16
F0.0
sg17
I0
sg18
I0
sg19
I2218275
sg20
I0
sg21
I0
sg22
I0
sg23
I0
sg24
I966522
sg25
I2218275
sg26
I0
ssS'LOWRY CHARLES P'
p68
(dp69
g3
I0
sg4
I0
sg5
I0
sg6
I00
sg7
I0
sg8
I0
sg10
I0
sg11
I-153686
sg12
I0
sg13
I0
sg14
I0
sg15
I0
sg16
I0
sg17
I0
sg18
I0
sg19
I372205
sg20
I0
sg21
I0
sg22
I153686
sg23
I0
sg24
I0
sg25
I372205
sg26
I0
ssS'COLWELL WESLEY'
p70
(dp71
g3
I1758
sg4
I27610
sg5
I16514
sg6
I01
sg7
I-144062
sg8
S'wes.colwell@enron.com'
p72
sg10
I0
sg11
I0
sg12
I1132
sg13
I0
sg14
I40
sg15
F0.13651877133105803
sg16
F0.275
sg17
I0
sg18
I1200000
sg19
I698242
sg20
I240
sg21
I11
sg22
I698242
sg23
I288542
sg24
I1490344
sg25
I0
sg26
I101740
ssS'MULLER MARK S'
p73
(dp74
g3
I136
sg4
I842924
sg5
I0
sg6
I00
sg7
I-719000
sg8
S's..muller@enron.com'
p75
sg10
I1725545
sg11
I0
sg12
I114
sg13
I0
sg14
I16
sg15
F0.08823529411764706
sg16
F0.0
sg17
I0
sg18
I1100000
sg19
I1416848
sg20
I12
sg21
I0
sg22
I360528
sg23
I251654
sg24
I3202070
sg25
I1056320
sg26
I947
ssS'JACKSON CHARLENE R'
p76
(dp77
g3
I258
sg4
I0
sg5
I10181
sg6
I00
sg7
I0
sg8
S'charlene.jackson@enron.com'
p78
sg10
I0
sg11
I0
sg12
I117
sg13
I0
sg14
I56
sg15
F0.09689922480620156
sg16
F0.3392857142857143
sg17
I0
sg18
I250000
sg19
I725735
sg20
I25
sg21
I19
sg22
I540672
sg23
I288558
sg24
I551174
sg25
I185063
sg26
I2435
ssS'WESTFAHL RICHARD K'
p79
(dp80
g3
I0
sg4
I0
sg5
I51870
sg6
I00
sg7
I-10800
sg8
S'dick.westfahl@enron.com'
p81
sg10
I256191
sg11
I0
sg12
I0
sg13
I0
sg14
I0
sg15
I0
sg16
I0
sg17
I0
sg18
I0
sg19
I384930
sg20
I0
sg21
I0
sg22
I384930
sg23
I63744
sg24
I762135
sg25
I0
sg26
I401130
ssS'WALTERS GARETH W'
p82
(dp83
g3
I0
sg4
I53625
sg5
I33785
sg6
I00
sg7
I0
sg8
I0
sg10
I0
sg11
I0
sg12
I0
sg13
I0
sg14
I0
sg15
I0
sg16
I0
sg17
I0
sg18
I0
sg19
I1030329
sg20
I0
sg21
I0
sg22
I0
sg23
I0
sg24
I87410
sg25
I1030329
sg26
I0
ssS'WALLS JR ROBERT H'
p84
(dp85
g3
I671
sg4
I0
sg5
I50936
sg6
I00
sg7
I0
sg8
S'rob.walls@enron.com'
p86
sg10
I540751
sg11
I0
sg12
I215
sg13
I0
sg14
I146
sg15
F0.02533532041728763
sg16
F0.0
sg17
I0
sg18
I850000
sg19
I5898997
sg20
I17
sg21
I0
sg22
I1552453
sg23
I357091
sg24
I1798780
sg25
I4346544
sg26
I2
ssS'KITCHEN LOUISE'
p87
(dp88
g3
I8305
sg4
I0
sg5
I5774
sg6
I00
sg7
I0
sg8
S'louise.kitchen@enron.com'
p89
sg10
I0
sg11
I0
sg12
I3669
sg13
I0
sg14
I1728
sg15
F0.030222757375075255
sg16
F0.11226851851851852
sg17
I0
sg18
I3100000
sg19
I547143
sg20
I251
sg21
I194
sg22
I466101
sg23
I271442
sg24
I3471141
sg25
I81042
sg26
I93925
ssS'CHAN RONNIE'
p90
(dp91
g3
I0
sg4
I0
sg5
I0
sg6
I00
sg7
I-98784
sg8
I0
sg10
I0
sg11
I-32460
sg12
I0
sg13
I0
sg14
I0
sg15
I0
sg16
I0
sg17
I98784
sg18
I0
sg19
I0
sg20
I0
sg21
I0
sg22
I32460
sg23
I0
sg24
I0
sg25
I0
sg26
I0
ssS'BELFER ROBERT'
p92
(dp93
g3
I0
sg4
I-102500
sg5
I0
sg6
I00
sg7
I0
sg8
I0
sg10
I0
sg11
I44093
sg12
I0
sg13
I0
sg14
I0
sg15
I0
sg16
I0
sg17
I3285
sg18
I0
sg19
I-44093
sg20
I0
sg21
I0
sg22
I0
sg23
I0
sg24
I102500
sg25
I3285
sg26
I0
ssS'SHANKMAN JEFFREY A'
p94
(dp95
g3
I3221
sg4
I0
sg5
I178979
sg6
I00
sg7
I0
sg8
S'jeffrey.shankman@enron.com'
p96
sg10
I554422
sg11
I0
sg12
I1730
sg13
I0
sg14
I2681
sg15
F0.029183483390251473
sg16
F0.030958597538232
sg17
I0
sg18
I2000000
sg19
I2072035
sg20
I94
sg21
I83
sg22
I630137
sg23
I304110
sg24
I3038702
sg25
I1441898
sg26
I1191
ssS'WODRASKA JOHN'
p97
(dp98
g3
I0
sg4
I0
sg5
I0
sg6
I00
sg7
I0
sg8
S'john.wodraska@enron.com'
p99
sg10
I0
sg11
I0
sg12
I0
sg13
I0
sg14
I0
sg15
I0
sg16
I0
sg17
I0
sg18
I0
sg19
I0
sg20
I0
sg21
I0
sg22
I0
sg23
I0
sg24
I189583
sg25
I0
sg26
I189583
ssS'BERGSIEKER RICHARD P'
p100
(dp101
g3
I383
sg4
I0
sg5
I59175
sg6
I00
sg7
I-485813
sg8
S'rick.bergsieker@enron.com'
p102
sg10
I180250
sg11
I0
sg12
I233
sg13
I0
sg14
I59
sg15
F0.010443864229765013
sg16
F0.0
sg17
I0
sg18
I250000
sg19
I659249
sg20
I4
sg21
I0
sg22
I659249
sg23
I187922
sg24
I618850
sg25
I0
sg26
I427316
ssS'URQUHART JOHN A'
p103
(dp104
g3
I0
sg4
I0
sg5
I228656
sg6
I00
sg7
I-36666
sg8
I0
sg10
I0
sg11
I0
sg12
I0
sg13
I0
sg14
I0
sg15
I0
sg16
I0
sg17
I36666
sg18
I0
sg19
I0
sg20
I0
sg21
I0
sg22
I0
sg23
I0
sg24
I228656
sg25
I0
sg26
I0
ssS'BIBI PHILIPPE A'
p105
(dp106
g3
I1607
sg4
I0
sg5
I38559
sg6
I00
sg7
I0
sg8
S'philippe.bibi@enron.com'
p107
sg10
I369721
sg11
I0
sg12
I1336
sg13
I0
sg14
I40
sg15
F0.01431238332296204
sg16
F0.2
sg17
I0
sg18
I1000000
sg19
I1843816
sg20
I23
sg21
I8
sg22
I378082
sg23
I213625
sg24
I2047593
sg25
I1465734
sg26
I425688
ssS'RIEKER PAULA H'
p108
(dp109
g3
I1328
sg4
I214678
sg5
I33271
sg6
I01
sg7
I-100000
sg8
S'paula.rieker@enron.com'
p110
sg10
I0
sg11
I0
sg12
I1258
sg13
I0
sg14
I82
sg15
F0.02635542168674699
sg16
F0.5853658536585366
sg17
I0
sg18
I700000
sg19
I1918887
sg20
I35
sg21
I48
sg22
I283649
sg23
I249201
sg24
I1099100
sg25
I1635238
sg26
I1950
ssS'WHALEY DAVID A'
p111
(dp112
g3
I0
sg4
I0
sg5
I0
sg6
I00
sg7
I0
sg8
I0
sg10
I0
sg11
I0
sg12
I0
sg13
I0
sg14
I0
sg15
I0
sg16
I0
sg17
I0
sg18
I0
sg19
I98718
sg20
I0
sg21
I0
sg22
I0
sg23
I0
sg24
I0
sg25
I98718
sg26
I0
ssS'BECK SALLY W'
p113
(dp114
g3
I7315
sg4
I0
sg5
I37172
sg6
I00
sg7
I0
sg8
S'sally.beck@enron.com'
p115
sg10
I0
sg11
I0
sg12
I2639
sg13
I0
sg14
I4343
sg15
F0.01968557758031442
sg16
F0.08887865530739121
sg17
I0
sg18
I700000
sg19
I126027
sg20
I144
sg21
I386
sg22
I126027
sg23
I231330
sg24
I969068
sg25
I0
sg26
I566
ssS'HAUG DAVID L'
p116
(dp117
g3
I573
sg4
I0
sg5
I475
sg6
I00
sg7
I0
sg8
S'david.haug@enron.com'
p118
sg10
I0
sg11
I0
sg12
I471
sg13
I0
sg14
I19
sg15
F0.006980802792321117
sg16
F0.3684210526315789
sg17
I0
sg18
I0
sg19
I2217299
sg20
I4
sg21
I7
sg22
I2217299
sg23
I0
sg24
I475
sg25
I0
sg26
I0
ssS'ECHOLS JOHN B'
p119
(dp120
g3
I0
sg4
I0
sg5
I21530
sg6
I00
sg7
I0
sg8
S'john.echols@enron.com'
p121
sg10
I2234774
sg11
I0
sg12
I0
sg13
I0
sg14
I0
sg15
I0
sg16
I0
sg17
I0
sg18
I200000
sg19
I1008941
sg20
I0
sg21
I0
sg22
I407503
sg23
I182245
sg24
I2692324
sg25
I601438
sg26
I53775
ssS'MENDELSOHN JOHN'
p122
(dp123
g3
I0
sg4
I0
sg5
I148
sg6
I00
sg7
I-103750
sg8
I0
sg10
I0
sg11
I0
sg12
I0
sg13
I0
sg14
I0
sg15
I0
sg16
I0
sg17
I103750
sg18
I0
sg19
I0
sg20
I0
sg21
I0
sg22
I0
sg23
I0
sg24
I148
sg25
I0
sg26
I0
ssS'HICKERSON GARY J'
p124
(dp125
g3
I1320
sg4
I0
sg5
I98849
sg6
I00
sg7
I0
sg8
S'gary.hickerson@enron.com'
p126
sg10
I69223
sg11
I0
sg12
I900
sg13
I0
sg14
I27
sg15
F0.030303030303030304
sg16
F0.037037037037037035
sg17
I0
sg18
I1700000
sg19
I441096
sg20
I40
sg21
I1
sg22
I441096
sg23
I211788
sg24
I2081796
sg25
I0
sg26
I1936
ssS'CLINE KENNETH W'
p127
(dp128
g3
I0
sg4
I0
sg5
I0
sg6
I00
sg7
I0
sg8
I0
sg10
I0
sg11
I-472568
sg12
I0
sg13
I0
sg14
I0
sg15
I0
sg16
I0
sg17
I0
sg18
I0
sg19
I189518
sg20
I0
sg21
I0
sg22
I662086
sg23
I0
sg24
I0
sg25
I0
sg26
I0
ssS'LEWIS RICHARD'
p129
(dp130
g3
I952
sg4
I0
sg5
I0
sg6
I00
sg7
I0
sg8
S'richard.lewis@enron.com'
p131
sg10
I0
sg11
I0
sg12
I739
sg13
I0
sg14
I26
sg15
F0.01050420168067227
sg16
F0.0
sg17
I0
sg18
I0
sg19
I850477
sg20
I10
sg21
I0
sg22
I0
sg23
I0
sg24
I0
sg25
I850477
sg26
I0
ssS'HAYES ROBERT E'
p132
(dp133
g3
I504
sg4
I7961
sg5
I0
sg6
I00
sg7
I0
sg8
S'robert.hayes@enron.com'
p134
sg10
I0
sg11
I0
sg12
I50
sg13
I0
sg14
I12
sg15
F0.031746031746031744
sg16
F0.0
sg17
I0
sg18
I0
sg19
I151418
sg20
I16
sg21
I0
sg22
I151418
sg23
I0
sg24
I7961
sg25
I0
sg26
I0
ssS'MCCARTY DANNY J'
p135
(dp136
g3
I1433
sg4
I0
sg5
I0
sg6
I00
sg7
I0
sg8
S'danny.mccarty@enron.com'
p137
sg10
I0
sg11
I0
sg12
I508
sg13
I0
sg14
I215
sg15
F0.017445917655268667
sg16
F0.009302325581395349
sg17
I0
sg18
I0
sg19
I758931
sg20
I25
sg21
I2
sg22
I94556
sg23
I0
sg24
I0
sg25
I664375
sg26
I0
ssS'KOPPER MICHAEL J'
p138
(dp139
g3
I0
sg4
I0
sg5
I118134
sg6
I01
sg7
I0
sg8
S'michael.kopper@enron.com'
p140
sg10
I602671
sg11
I0
sg12
I0
sg13
I0
sg14
I0
sg15
I0
sg16
I0
sg17
I0
sg18
I800000
sg19
I985032
sg20
I0
sg21
I0
sg22
I985032
sg23
I224305
sg24
I2652612
sg25
I0
sg26
I907502
ssS'LEFF DANIEL P'
p141
(dp142
g3
I2822
sg4
I0
sg5
I0
sg6
I00
sg7
I0
sg8
S'dan.leff@enron.com'
p143
sg10
I1387399
sg11
I0
sg12
I2672
sg13
I0
sg14
I63
sg15
F0.02374202693125443
sg16
F0.2222222222222222
sg17
I0
sg18
I1000000
sg19
I360528
sg20
I67
sg21
I14
sg22
I360528
sg23
I273746
sg24
I2664228
sg25
I0
sg26
I3083
ssS'LAVORATO JOHN J'
p144
(dp145
g3
I7259
sg4
I0
sg5
I49537
sg6
I00
sg7
I0
sg8
S'john.lavorato@enron.com'
p146
sg10
I2035380
sg11
I0
sg12
I3962
sg13
I0
sg14
I2585
sg15
F0.07273729163796666
sg16
F0.15899419729206962
sg17
I0
sg18
I8000000
sg19
I5167144
sg20
I528
sg21
I411
sg22
I1008149
sg23
I339288
sg24
I10425757
sg25
I4158995
sg26
I1552
ssS'BERBERIAN DAVID'
p147
(dp148
g3
I0
sg4
I0
sg5
I11892
sg6
I00
sg7
I0
sg8
S'david.berberian@enron.com'
p149
sg10
I0
sg11
I0
sg12
I0
sg13
I0
sg14
I0
sg15
I0
sg16
I0
sg17
I0
sg18
I0
sg19
I2493616
sg20
I0
sg21
I0
sg22
I869220
sg23
I216582
sg24
I228474
sg25
I1624396
sg26
I0
ssS'DETMERING TIMOTHY J'
p150
(dp151
g3
I0
sg4
I875307
sg5
I52255
sg6
I00
sg7
I-775241
sg8
S'timothy.detmering@enron.com'
p152
sg10
I415657
sg11
I-315068
sg12
I0
sg13
I0
sg14
I0
sg15
I0
sg16
I0
sg17
I0
sg18
I425000
sg19
I2027865
sg20
I0
sg21
I0
sg22
I315068
sg23
I210500
sg24
I1204583
sg25
I2027865
sg26
I1105
ssS'WAKEHAM JOHN'
p153
(dp154
g3
I0
sg4
I0
sg5
I103773
sg6
I00
sg7
I0
sg8
I0
sg10
I0
sg11
I0
sg12
I0
sg13
I0
sg14
I0
sg15
I0
sg16
I0
sg17
I109298
sg18
I0
sg19
I0
sg20
I0
sg21
I0
sg22
I0
sg23
I0
sg24
I213071
sg25
I0
sg26
I0
ssS'POWERS WILLIAM'
p155
(dp156
g3
I653
sg4
I0
sg5
I0
sg6
I00
sg7
I-17500
sg8
S'ken.powers@enron.com'
p157
sg10
I0
sg11
I0
sg12
I12
sg13
I0
sg14
I26
sg15
F0.0
sg16
F0.0
sg17
I17500
sg18
I0
sg19
I0
sg20
I0
sg21
I0
sg22
I0
sg23
I0
sg24
I0
sg25
I0
sg26
I0
ssS'GOLD JOSEPH'
p158
(dp159
g3
I0
sg4
I0
sg5
I0
sg6
I00
sg7
I0
sg8
S'joe.gold@enron.com'
p160
sg10
I304805
sg11
I0
sg12
I0
sg13
I0
sg14
I0
sg15
I0
sg16
I0
sg17
I0
sg18
I750000
sg19
I877611
sg20
I0
sg21
I0
sg22
I441096
sg23
I272880
sg24
I2146973
sg25
I436515
sg26
I819288
ssS'BANNANTINE JAMES M'
p161
(dp162
g3
I566
sg4
I0
sg5
I56301
sg6
I00
sg7
I-5104
sg8
S'james.bannantine@enron.com'
p163
sg10
I0
sg11
I-560222
sg12
I465
sg13
I0
sg14
I29
sg15
F0.06890459363957598
sg16
F0.0
sg17
I0
sg18
I0
sg19
I5243487
sg20
I39
sg21
I0
sg22
I1757552
sg23
I477
sg24
I916197
sg25
I4046157
sg26
I864523
ssS'DUNCAN JOHN H'
p164
(dp165
g3
I0
sg4
I0
sg5
I0
sg6
I00
sg7
I-25000
sg8
I0
sg10
I0
sg11
I0
sg12
I0
sg13
I0
sg14
I0
sg15
I0
sg16
I0
sg17
I102492
sg18
I0
sg19
I371750
sg20
I0
sg21
I0
sg22
I0
sg23
I0
sg24
I77492
sg25
I371750
sg26
I0
ssS'SHAPIRO RICHARD S'
p166
(dp167
g3
I15149
sg4
I0
sg5
I137767
sg6
I00
sg7
I0
sg8
S'richard.shapiro@enron.com'
p168
sg10
I0
sg11
I0
sg12
I4527
sg13
I0
sg14
I1215
sg15
F0.0048848108786058485
sg16
F0.053497942386831275
sg17
I0
sg18
I650000
sg19
I987001
sg20
I74
sg21
I65
sg22
I379164
sg23
I269076
sg24
I1057548
sg25
I607837
sg26
I705
ssS'SHERRIFF JOHN R'
p169
(dp170
g3
I3187
sg4
I0
sg5
I0
sg6
I00
sg7
I0
sg8
S'john.sherriff@enron.com'
p171
sg10
I554422
sg11
I0
sg12
I2103
sg13
I0
sg14
I92
sg15
F0.008785691873235017
sg16
F0.25
sg17
I0
sg18
I1500000
sg19
I3128982
sg20
I28
sg21
I23
sg22
I1293424
sg23
I428780
sg24
I4335388
sg25
I1835558
sg26
I1852186
ssS'SHELBY REX'
p172
(dp173
g3
I225
sg4
I0
sg5
I22884
sg6
I01
sg7
I-4167
sg8
S'rex.shelby@enron.com'
p174
sg10
I0
sg11
I0
sg12
I91
sg13
I0
sg14
I39
sg15
F0.057777777777777775
sg16
F0.358974358974359
sg17
I0
sg18
I200000
sg19
I2493616
sg20
I13
sg21
I14
sg22
I869220
sg23
I211844
sg24
I2003885
sg25
I1624396
sg26
I1573324
ssS'LEMAISTRE CHARLES'
p175
(dp176
g3
I0
sg4
I0
sg5
I0
sg6
I00
sg7
I-25000
sg8
I0
sg10
I0
sg11
I0
sg12
I0
sg13
I0
sg14
I0
sg15
I0
sg16
I0
sg17
I112492
sg18
I0
sg19
I412878
sg20
I0
sg21
I0
sg22
I0
sg23
I0
sg24
I87492
sg25
I412878
sg26
I0
ssS'DEFFNER JOSEPH M'
p177
(dp178
g3
I714
sg4
I0
sg5
I41626
sg6
I00
sg7
I0
sg8
S'joseph.deffner@enron.com'
p179
sg10
I335349
sg11
I0
sg12
I552
sg13
I0
sg14
I74
sg15
F0.16106442577030813
sg16
F0.05405405405405406
sg17
I0
sg18
I600000
sg19
I159211
sg20
I115
sg21
I4
sg22
I141833
sg23
I206121
sg24
I1208649
sg25
I17378
sg26
I25553
ssS'KISHKILL JOSEPH G'
p180
(dp181
g3
I0
sg4
I0
sg5
I116335
sg6
I00
sg7
I-51042
sg8
S'joe.kishkill@enron.com'
p182
sg10
I0
sg11
I0
sg12
I0
sg13
I0
sg14
I0
sg15
I0
sg16
I0
sg17
I0
sg18
I0
sg19
I1034346
sg20
I0
sg21
I0
sg22
I1034346
sg23
I174246
sg24
I704896
sg25
I0
sg26
I465357
ssS'WHALLEY LAWRENCE G'
p183
(dp184
g3
I6019
sg4
I0
sg5
I57838
sg6
I00
sg7
I0
sg8
S'greg.whalley@enron.com'
p185
sg10
I808346
sg11
I0
sg12
I3920
sg13
I0
sg14
I556
sg15
F0.03090214321315833
sg16
F0.04316546762589928
sg17
I0
sg18
I3000000
sg19
I6079137
sg20
I186
sg21
I24
sg22
I2796177
sg23
I510364
sg24
I4677574
sg25
I3282960
sg26
I301026
ssS'MCCONNELL MICHAEL S'
p186
(dp187
g3
I3329
sg4
I0
sg5
I81364
sg6
I00
sg7
I0
sg8
S'mike.mcconnell@enron.com'
p188
sg10
I554422
sg11
I0
sg12
I2189
sg13
I0
sg14
I2742
sg15
F0.02763592670471613
sg16
F0.07075127644055434
sg17
I0
sg18
I1100000
sg19
I3101279
sg20
I92
sg21
I194
sg22
I1478269
sg23
I365038
sg24
I2101364
sg25
I1623010
sg26
I540
ssS'PIRO JIM'
p189
(dp190
g3
I58
sg4
I0
sg5
I0
sg6
I00
sg7
I0
sg8
S'jim.piro@enron.com'
p191
sg10
I0
sg11
I0
sg12
I3
sg13
I0
sg14
I16
sg15
F0.0
sg16
F0.0625
sg17
I0
sg18
I0
sg19
I47304
sg20
I0
sg21
I1
sg22
I47304
sg23
I0
sg24
I0
sg25
I0
sg26
I0
ssS'DELAINEY DAVID W'
p192
(dp193
g3
I3093
sg4
I0
sg5
I86174
sg6
I01
sg7
I0
sg8
S'david.delainey@enron.com'
p194
sg10
I1294981
sg11
I0
sg12
I2097
sg13
I0
sg14
I3069
sg15
F0.02133850630455868
sg16
F0.198435972629521
sg17
I0
sg18
I3000000
sg19
I3614261
sg20
I66
sg21
I609
sg22
I1323148
sg23
I365163
sg24
I4747979
sg25
I2291113
sg26
I1661
ssS'SULLIVAN-SHAKLOVITZ COLLEEN'
p195
(dp196
g3
I0
sg4
I181993
sg5
I0
sg6
I00
sg7
I0
sg8
I0
sg10
I554422
sg11
I0
sg12
I0
sg13
I0
sg14
I0
sg15
I0
sg16
I0
sg17
I0
sg18
I100000
sg19
I1362375
sg20
I0
sg21
I0
sg22
I0
sg23
I162779
sg24
I999356
sg25
I1362375
sg26
I162
ssS'WROBEL BRUCE'
p197
(dp198
g3
I0
sg4
I0
sg5
I0
sg6
I00
sg7
I0
sg8
I0
sg10
I0
sg11
I0
sg12
I0
sg13
I0
sg14
I0
sg15
I0
sg16
I0
sg17
I0
sg18
I0
sg19
I139130
sg20
I0
sg21
I0
sg22
I0
sg23
I0
sg24
I0
sg25
I139130
sg26
I0
ssS'LINDHOLM TOD A'
p199
(dp200
g3
I0
sg4
I204075
sg5
I57727
sg6
I00
sg7
I0
sg8
S'tod.lindholm@enron.com'
p201
sg10
I175000
sg11
I0
sg12
I0
sg13
I0
sg14
I0
sg15
I0
sg16
I0
sg17
I0
sg18
I200000
sg19
I3064208
sg20
I0
sg21
I0
sg22
I514847
sg23
I236457
sg24
I875889
sg25
I2549361
sg26
I2630
ssS'MEYER JEROME J'
p202
(dp203
g3
I0
sg4
I0
sg5
I2151
sg6
I00
sg7
I-38346
sg8
I0
sg10
I0
sg11
I0
sg12
I0
sg13
I0
sg14
I0
sg15
I0
sg16
I0
sg17
I38346
sg18
I0
sg19
I0
sg20
I0
sg21
I0
sg22
I0
sg23
I0
sg24
I2151
sg25
I0
sg26
I0
ssS'LAY KENNETH L'
p204
(dp205
g3
I4273
sg4
I202911
sg5
I99832
sg6
I01
sg7
I-300000
sg8
S'kenneth.lay@enron.com'
p206
sg10
I3600000
sg11
I0
sg12
I2411
sg13
I81525000
sg14
I36
sg15
F0.028785396676807865
sg16
F0.4444444444444444
sg17
I0
sg18
I7000000
sg19
I49110078
sg20
I123
sg21
I16
sg22
I14761694
sg23
I1072321
sg24
I103559793
sg25
I34348384
sg26
I10359729
ssS'BUTTS ROBERT H'
p207
(dp208
g3
I0
sg4
I0
sg5
I9410
sg6
I00
sg7
I-75000
sg8
S'bob.butts@enron.com'
p209
sg10
I175000
sg11
I0
sg12
I0
sg13
I0
sg14
I0
sg15
I0
sg16
I0
sg17
I0
sg18
I750000
sg19
I417619
sg20
I0
sg21
I0
sg22
I417619
sg23
I261516
sg24
I1271582
sg25
I0
sg26
I150656
ssS'OLSON CINDY K'
p210
(dp211
g3
I1184
sg4
I77716
sg5
I63791
sg6
I00
sg7
I0
sg8
S'cindy.olson@enron.com'
p212
sg10
I100000
sg11
I0
sg12
I856
sg13
I0
sg14
I52
sg15
F0.016891891891891893
sg16
F0.28846153846153844
sg17
I0
sg18
I750000
sg19
I2606763
sg20
I20
sg21
I15
sg22
I969729
sg23
I329078
sg24
I1321557
sg25
I1637034
sg26
I972
ssS'MCDONALD REBECCA'
p213
(dp214
g3
I894
sg4
I0
sg5
I0
sg6
I00
sg7
I0
sg8
S'rebecca.mcdonald@enron.com'
p215
sg10
I0
sg11
I0
sg12
I720
sg13
I0
sg14
I13
sg15
F0.06040268456375839
sg16
F0.07692307692307693
sg17
I0
sg18
I0
sg19
I1691366
sg20
I54
sg21
I1
sg22
I934065
sg23
I0
sg24
I0
sg25
I757301
sg26
I0
ssS'CUMBERLAND MICHAEL S'
p216
(dp217
g3
I0
sg4
I0
sg5
I22344
sg6
I00
sg7
I0
sg8
I0
sg10
I275000
sg11
I0
sg12
I0
sg13
I0
sg14
I0
sg15
I0
sg16
I0
sg17
I0
sg18
I325000
sg19
I207940
sg20
I0
sg21
I0
sg22
I207940
sg23
I184899
sg24
I807956
sg25
I0
sg26
I713
ssS'GAHN ROBERT S'
p218
(dp219
g3
I0
sg4
I73122
sg5
I50080
sg6
I00
sg7
I-1042
sg8
I0
sg10
I0
sg11
I0
sg12
I0
sg13
I0
sg14
I0
sg15
I0
sg16
I0
sg17
I0
sg18
I509870
sg19
I318607
sg20
I0
sg21
I0
sg22
I235370
sg23
I192008
sg24
I900585
sg25
I83237
sg26
I76547
ssS'MCCLELLAN GEORGE'
p220
(dp221
g3
I1744
sg4
I0
sg5
I228763
sg6
I00
sg7
I-125000
sg8
S'george.mcclellan@enron.com'
p222
sg10
I0
sg11
I0
sg12
I1469
sg13
I0
sg14
I49
sg15
F0.02981651376146789
sg16
F0.0
sg17
I0
sg18
I900000
sg19
I947861
sg20
I52
sg21
I0
sg22
I441096
sg23
I263413
sg24
I1318763
sg25
I506765
sg26
I51587
ssS'HERMANN ROBERT J'
p223
(dp224
g3
I0
sg4
I0
sg5
I48357
sg6
I00
sg7
I-280000
sg8
S'robert.hermann@enron.com'
p225
sg10
I150000
sg11
I0
sg12
I0
sg13
I0
sg14
I0
sg15
I0
sg16
I0
sg17
I0
sg18
I700000
sg19
I668132
sg20
I0
sg21
I0
sg22
I480632
sg23
I262663
sg24
I1297461
sg25
I187500
sg26
I416441
ssS'SCRIMSHAW MATTHEW'
p226
(dp227
g3
I0
sg4
I0
sg5
I0
sg6
I00
sg7
I0
sg8
S'matthew.scrimshaw@enron.com'
p228
sg10
I0
sg11
I0
sg12
I0
sg13
I0
sg14
I0
sg15
I0
sg16
I0
sg17
I0
sg18
I0
sg19
I759557
sg20
I0
sg21
I0
sg22
I0
sg23
I0
sg24
I0
sg25
I759557
sg26
I0
ssS'GATHMANN WILLIAM D'
p229
(dp230
g3
I0
sg4
I0
sg5
I0
sg6
I00
sg7
I0
sg8
I0
sg10
I0
sg11
I-72419
sg12
I0
sg13
I0
sg14
I0
sg15
I0
sg16
I0
sg17
I0
sg18
I0
sg19
I1945360
sg20
I0
sg21
I0
sg22
I264013
sg23
I0
sg24
I0
sg25
I1753766
sg26
I0
ssS'HAEDICKE MARK E'
p231
(dp232
g3
I4009
sg4
I2157527
sg5
I76169
sg6
I00
sg7
I-934484
sg8
S'mark.haedicke@enron.com'
p233
sg10
I983346
sg11
I-329825
sg12
I1847
sg13
I0
sg14
I1941
sg15
F0.04489897730107259
sg16
F0.03142709943328181
sg17
I0
sg18
I1150000
sg19
I803094
sg20
I180
sg21
I61
sg22
I524169
sg23
I374125
sg24
I3859065
sg25
I608750
sg26
I52382
ssS'BOWEN JR RAYMOND M'
p234
(dp235
g3
I1858
sg4
I0
sg5
I65907
sg6
I01
sg7
I-833
sg8
S'raymond.bowen@enron.com'
p236
sg10
I974293
sg11
I0
sg12
I1593
sg13
I0
sg14
I27
sg15
F0.07534983853606028
sg16
F0.5555555555555556
sg17
I0
sg18
I1350000
sg19
I252055
sg20
I140
sg21
I15
sg22
I252055
sg23
I278601
sg24
I2669589
sg25
I0
sg26
I1621
ssS'GILLIS JOHN'
p237
(dp238
g3
I0
sg4
I0
sg5
I0
sg6
I00
sg7
I0
sg8
I0
sg10
I0
sg11
I0
sg12
I0
sg13
I0
sg14
I0
sg15
I0
sg16
I0
sg17
I0
sg18
I0
sg19
I85641
sg20
I0
sg21
I0
sg22
I75838
sg23
I0
sg24
I0
sg25
I9803
sg26
I0
ssS'FITZGERALD JAY L'
p239
(dp240
g3
I936
sg4
I0
sg5
I23870
sg6
I00
sg7
I0
sg8
S'jay.fitzgerald@enron.com'
p241
sg10
I556416
sg11
I0
sg12
I723
sg13
I0
sg14
I16
sg15
F0.0010683760683760685
sg16
F0.5
sg17
I0
sg18
I350000
sg19
I1621236
sg20
I1
sg21
I8
sg22
I956775
sg23
I199157
sg24
I1414857
sg25
I664461
sg26
I285414
ssS'MORAN MICHAEL P'
p242
(dp243
g3
I672
sg4
I0
sg5
I0
sg6
I00
sg7
I0
sg8
S'michael.moran@enron.com'
p244
sg10
I0
sg11
I0
sg12
I127
sg13
I0
sg14
I19
sg15
F0.0
sg16
F0.0
sg17
I0
sg18
I0
sg19
I221141
sg20
I0
sg21
I0
sg22
I161602
sg23
I0
sg24
I0
sg25
I59539
sg26
I0
ssS'REDMOND BRIAN L'
p245
(dp246
g3
I1671
sg4
I0
sg5
I14689
sg6
I00
sg7
I0
sg8
S'brian.redmond@enron.com'
p247
sg10
I0
sg11
I0
sg12
I1063
sg13
I0
sg14
I221
sg15
F0.12208258527827648
sg16
F0.22171945701357465
sg17
I0
sg18
I0
sg19
I7890324
sg20
I204
sg21
I49
sg22
I381285
sg23
I96840
sg24
I111529
sg25
I7509039
sg26
I0
ssS'BAZELIDES PHILIP J'
p248
(dp249
g3
I0
sg4
I684694
sg5
I0
sg6
I00
sg7
I0
sg8
I0
sg10
I93750
sg11
I0
sg12
I0
sg13
I0
sg14
I0
sg15
I0
sg16
I0
sg17
I0
sg18
I0
sg19
I1599641
sg20
I0
sg21
I0
sg22
I0
sg23
I80818
sg24
I860136
sg25
I1599641
sg26
I874
ssS'BELDEN TIMOTHY N'
p250
(dp251
g3
I7991
sg4
I2144013
sg5
I17355
sg6
I01
sg7
I-2334434
sg8
S'tim.belden@enron.com'
p252
sg10
I0
sg11
I0
sg12
I5521
sg13
I0
sg14
I484
sg15
F0.028532098610937303
sg16
F0.2231404958677686
sg17
I0
sg18
I5249999
sg19
I1110705
sg20
I228
sg21
I108
sg22
I157569
sg23
I213999
sg24
I5501630
sg25
I953136
sg26
I210698
ssS'DURAN WILLIAM D'
p253
(dp254
g3
I904
sg4
I0
sg5
I25785
sg6
I00
sg7
I0
sg8
S'w.duran@enron.com'
p255
sg10
I1105218
sg11
I0
sg12
I599
sg13
I0
sg14
I12
sg15
F0.1172566371681416
sg16
F0.25
sg17
I0
sg18
I750000
sg19
I1640910
sg20
I106
sg21
I3
sg22
I189041
sg23
I210692
sg24
I2093263
sg25
I1451869
sg26
I1568
ssS'THORN TERENCE H'
p256
(dp257
g3
I266
sg4
I16586
sg5
I46145
sg6
I00
sg7
I0
sg8
S'terence.thorn@enron.com'
p258
sg10
I200000
sg11
I0
sg12
I73
sg13
I0
sg14
I41
sg15
F0.0
sg16
F0.0
sg17
I0
sg18
I0
sg19
I4817796
sg20
I0
sg21
I0
sg22
I365320
sg23
I222093
sg24
I911453
sg25
I4452476
sg26
I426629
ssS'FASTOW ANDREW S'
p259
(dp260
g3
I0
sg4
I0
sg5
I55921
sg6
I01
sg7
I-1386055
sg8
S'andrew.fastow@enron.com'
p261
sg10
I1736055
sg11
I0
sg12
I0
sg13
I0
sg14
I0
sg15
I0
sg16
I0
sg17
I0
sg18
I1300000
sg19
I1794412
sg20
I0
sg21
I0
sg22
I1794412
sg23
I440698
sg24
I2424083
sg25
I0
sg26
I277464
ssS'FOY JOE'
p262
(dp263
g3
I57
sg4
I181755
sg5
I0
sg6
I00
sg7
I0
sg8
S'tracy.foy@enron.com'
p264
sg10
I0
sg11
I0
sg12
I2
sg13
I0
sg14
I13
sg15
F0.0
sg16
F0.0
sg17
I0
sg18
I0
sg19
I343434
sg20
I0
sg21
I0
sg22
I0
sg23
I0
sg24
I181755
sg25
I343434
sg26
I0
ssS'CALGER CHRISTOPHER F'
p265
(dp266
g3
I2598
sg4
I0
sg5
I35818
sg6
I01
sg7
I-262500
sg8
S'christopher.calger@enron.com'
p267
sg10
I375304
sg11
I0
sg12
I2188
sg13
I0
sg14
I144
sg15
F0.07659738260200154
sg16
F0.1736111111111111
sg17
I0
sg18
I1250000
sg19
I126027
sg20
I199
sg21
I25
sg22
I126027
sg23
I240189
sg24
I1639297
sg25
I0
sg26
I486
ssS'RICE KENNETH D'
p268
(dp269
g3
I905
sg4
I0
sg5
I46950
sg6
I01
sg7
I-3504386
sg8
S'ken.rice@enron.com'
p270
sg10
I1617011
sg11
I0
sg12
I864
sg13
I0
sg14
I18
sg15
F0.04640883977900553
sg16
F0.2222222222222222
sg17
I0
sg18
I1750000
sg19
I22542539
sg20
I42
sg21
I4
sg22
I2748364
sg23
I420636
sg24
I505050
sg25
I19794175
sg26
I174839
ssS'KAMINSKI WINCENTY J'
p271
(dp272
g3
I4607
sg4
I0
sg5
I83585
sg6
I00
sg7
I0
sg8
S'vince.kaminski@enron.com'
p273
sg10
I323466
sg11
I0
sg12
I583
sg13
I0
sg14
I14368
sg15
F0.008899500759713479
sg16
F0.011901447661469933
sg17
I0
sg18
I400000
sg19
I976037
sg20
I41
sg21
I171
sg22
I126027
sg23
I275101
sg24
I1086821
sg25
I850010
sg26
I4669
ssS'LOCKHART EUGENE E'
p274
(dp275
g3
I0
sg4
I0
sg5
I0
sg6
I00
sg7
I0
sg8
I0
sg10
I0
sg11
I0
sg12
I0
sg13
I0
sg14
I0
sg15
I0
sg16
I0
sg17
I0
sg18
I0
sg19
I0
sg20
I0
sg21
I0
sg22
I0
sg23
I0
sg24
I0
sg25
I0
sg26
I0
ssS'COX DAVID'
p276
(dp277
g3
I102
sg4
I0
sg5
I27861
sg6
I00
sg7
I-41250
sg8
S'chip.cox@enron.com'
p278
sg10
I0
sg11
I0
sg12
I71
sg13
I0
sg14
I33
sg15
F0.0
sg16
F0.12121212121212122
sg17
I0
sg18
I800000
sg19
I495633
sg20
I0
sg21
I4
sg22
I378082
sg23
I314288
sg24
I1101393
sg25
I117551
sg26
I494
ssS'OVERDYKE JR JERE C'
p279
(dp280
g3
I0
sg4
I0
sg5
I18834
sg6
I00
sg7
I0
sg8
S'jere.overdyke@enron.com'
p281
sg10
I135836
sg11
I0
sg12
I0
sg13
I0
sg14
I0
sg15
I0
sg16
I0
sg17
I0
sg18
I0
sg19
I7307594
sg20
I0
sg21
I0
sg22
I2041016
sg23
I94941
sg24
I249787
sg25
I5266578
sg26
I176
ssS'PEREIRA PAULO V. FERRAZ'
p282
(dp283
g3
I0
sg4
I0
sg5
I27942
sg6
I00
sg7
I-101250
sg8
I0
sg10
I0
sg11
I0
sg12
I0
sg13
I0
sg14
I0
sg15
I0
sg16
I0
sg17
I101250
sg18
I0
sg19
I0
sg20
I0
sg21
I0
sg22
I0
sg23
I0
sg24
I27942
sg25
I0
sg26
I0
ssS'STABLER FRANK'
p284
(dp285
g3
I0
sg4
I0
sg5
I16514
sg6
I00
sg7
I0
sg8
S'frank.stabler@enron.com'
p286
sg10
I0
sg11
I0
sg12
I0
sg13
I0
sg14
I0
sg15
I0
sg16
I0
sg17
I0
sg18
I500000
sg19
I511734
sg20
I0
sg21
I0
sg22
I511734
sg23
I239502
sg24
I1112087
sg25
I0
sg26
I356071
ssS'SKILLING JEFFREY K'
p287
(dp288
g3
I3627
sg4
I0
sg5
I29336
sg6
I01
sg7
I0
sg8
S'jeff.skilling@enron.com'
p289
sg10
I1920000
sg11
I0
sg12
I2042
sg13
I0
sg14
I108
sg15
F0.0242624758753791
sg16
F0.2777777777777778
sg17
I0
sg18
I5600000
sg19
I26093672
sg20
I88
sg21
I30
sg22
I6843672
sg23
I1111258
sg24
I8682716
sg25
I19250000
sg26
I22122
ssS'BLAKE JR. NORMAN P'
p290
(dp291
g3
I0
sg4
I0
sg5
I1279
sg6
I00
sg7
I-113784
sg8
I0
sg10
I0
sg11
I0
sg12
I0
sg13
I0
sg14
I0
sg15
I0
sg16
I0
sg17
I113784
sg18
I0
sg19
I0
sg20
I0
sg21
I0
sg22
I0
sg23
I0
sg24
I1279
sg25
I0
sg26
I0
ssS'SHERRICK JEFFREY B'
p292
(dp293
g3
I613
sg4
I0
sg5
I0
sg6
I00
sg7
I0
sg8
S'jeffrey.sherrick@enron.com'
p294
sg10
I0
sg11
I0
sg12
I583
sg13
I0
sg14
I25
sg15
F0.0636215334420881
sg16
F0.72
sg17
I0
sg18
I0
sg19
I1832468
sg20
I39
sg21
I18
sg22
I405999
sg23
I0
sg24
I0
sg25
I1426469
sg26
I0
ssS'PRENTICE JAMES'
p295
(dp296
g3
I0
sg4
I564348
sg5
I0
sg6
I00
sg7
I0
sg8
S'james.prentice@enron.com'
p297
sg10
I0
sg11
I0
sg12
I0
sg13
I0
sg14
I0
sg15
I0
sg16
I0
sg17
I0
sg18
I0
sg19
I1095040
sg20
I0
sg21
I0
sg22
I208809
sg23
I0
sg24
I564348
sg25
I886231
sg26
I0
ssS'GRAY RODNEY'
p298
(dp299
g3
I0
sg4
I93585
sg5
I0
sg6
I00
sg7
I0
sg8
I0
sg10
I365625
sg11
I0
sg12
I0
sg13
I0
sg14
I0
sg15
I0
sg16
I0
sg17
I0
sg18
I0
sg19
I0
sg20
I0
sg21
I0
sg22
I0
sg23
I6615
sg24
I1146658
sg25
I0
sg26
I680833
ssS'PICKERING MARK R'
p300
(dp301
g3
I898
sg4
I0
sg5
I31653
sg6
I00
sg7
I0
sg8
S'mark.pickering@enron.com'
p302
sg10
I0
sg11
I0
sg12
I728
sg13
I400000
sg14
I67
sg15
F0.0077951002227171495
sg16
F0.0
sg17
I0
sg18
I300000
sg19
I28798
sg20
I7
sg21
I0
sg22
I0
sg23
I655037
sg24
I1386690
sg25
I28798
sg26
I0
ssS'THE TRAVEL AGENCY IN THE PARK'
p303
(dp304
g3
I0
sg4
I0
sg5
I0
sg6
I00
sg7
I0
sg8
I0
sg10
I0
sg11
I0
sg12
I0
sg13
I0
sg14
I0
sg15
I0
sg16
I0
sg17
I0
sg18
I0
sg19
I0
sg20
I0
sg21
I0
sg22
I0
sg23
I0
sg24
I362096
sg25
I0
sg26
I362096
ssS'NOLES JAMES L'
p305
(dp306
g3
I0
sg4
I774401
sg5
I0
sg6
I00
sg7
I0
sg8
I0
sg10
I0
sg11
I-94556
sg12
I0
sg13
I0
sg14
I0
sg15
I0
sg16
I0
sg17
I0
sg18
I0
sg19
I368705
sg20
I0
sg21
I0
sg22
I463261
sg23
I0
sg24
I774401
sg25
I0
sg26
I0
ssS'KEAN STEVEN J'
p307
(dp308
g3
I12754
sg4
I0
sg5
I41953
sg6
I00
sg7
I0
sg8
S'steven.kean@enron.com'
p309
sg10
I300000
sg11
I0
sg12
I3639
sg13
I0
sg14
I6759
sg15
F0.010976948408342482
sg16
F0.05725699067909454
sg17
I0
sg18
I1000000
sg19
I6153642
sg20
I140
sg21
I387
sg22
I4131594
sg23
I404338
sg24
I1747522
sg25
I2022048
sg26
I1231
ssS'FOWLER PEGGY'
p310
(dp311
g3
I517
sg4
I0
sg5
I0
sg6
I00
sg7
I0
sg8
S'kulvinder.fowler@enron.com'
p312
sg10
I0
sg11
I0
sg12
I10
sg13
I0
sg14
I36
sg15
F0.0
sg16
F0.0
sg17
I0
sg18
I0
sg19
I1884748
sg20
I0
sg21
I0
sg22
I560170
sg23
I0
sg24
I0
sg25
I1324578
sg26
I0
ssS'WASAFF GEORGE'
p313
(dp314
g3
I400
sg4
I831299
sg5
I0
sg6
I00
sg7
I-583325
sg8
S'george.wasaff@enron.com'
p315
sg10
I200000
sg11
I0
sg12
I337
sg13
I0
sg14
I30
sg15
F0.055
sg16
F0.23333333333333334
sg17
I0
sg18
I325000
sg19
I2056427
sg20
I22
sg21
I7
sg22
I388167
sg23
I259996
sg24
I1034395
sg25
I1668260
sg26
I1425
ssS'WHITE JR THOMAS E'
p316
(dp317
g3
I0
sg4
I0
sg5
I81353
sg6
I00
sg7
I0
sg8
S'thomas.white@enron.com'
p318
sg10
I0
sg11
I0
sg12
I0
sg13
I0
sg14
I0
sg15
I0
sg16
I0
sg17
I0
sg18
I450000
sg19
I15144123
sg20
I0
sg21
I0
sg22
I13847074
sg23
I317543
sg24
I1934359
sg25
I1297049
sg26
I1085463
ssS'CHRISTODOULOU DIOMEDES'
p319
(dp320
g3
I0
sg4
I0
sg5
I0
sg6
I00
sg7
I0
sg8
S'diomedes.christodoulou@enron.com'
p321
sg10
I0
sg11
I0
sg12
I0
sg13
I0
sg14
I0
sg15
I0
sg16
I0
sg17
I0
sg18
I0
sg19
I6077885
sg20
I0
sg21
I0
sg22
I950730
sg23
I0
sg24
I0
sg25
I5127155
sg26
I0
ssS'ALLEN PHILLIP K'
p322
(dp323
g3
I2902
sg4
I2869717
sg5
I13868
sg6
I00
sg7
I-3081055
sg8
S'phillip.allen@enron.com'
p324
sg10
I304805
sg11
I-126027
sg12
I1407
sg13
I0
sg14
I2195
sg15
F0.016195727084769126
sg16
F0.029612756264236904
sg17
I0
sg18
I4175000
sg19
I1729541
sg20
I47
sg21
I65
sg22
I126027
sg23
I201955
sg24
I4484442
sg25
I1729541
sg26
I152
ssS'SHARP VICTORIA T'
p325
(dp326
g3
I3136
sg4
I187469
sg5
I116337
sg6
I00
sg7
I0
sg8
S'vicki.sharp@enron.com'
p327
sg10
I422158
sg11
I0
sg12
I2477
sg13
I0
sg14
I136
sg15
F0.007653061224489796
sg16
F0.04411764705882353
sg17
I0
sg18
I600000
sg19
I494136
sg20
I24
sg21
I6
sg22
I213063
sg23
I248146
sg24
I1576511
sg25
I281073
sg26
I2401
ssS'JAEDICKE ROBERT'
p328
(dp329
g3
I0
sg4
I0
sg5
I0
sg6
I00
sg7
I-25000
sg8
I0
sg10
I0
sg11
I-44093
sg12
I0
sg13
I0
sg14
I0
sg15
I0
sg16
I0
sg17
I108750
sg18
I0
sg19
I431750
sg20
I0
sg21
I0
sg22
I44093
sg23
I0
sg24
I83750
sg25
I431750
sg26
I0
ssS'WINOKUR JR. HERBERT S'
p330
(dp331
g3
I0
sg4
I0
sg5
I1413
sg6
I00
sg7
I-25000
sg8
I0
sg10
I0
sg11
I0
sg12
I0
sg13
I0
sg14
I0
sg15
I0
sg16
I0
sg17
I108579
sg18
I0
sg19
I0
sg20
I0
sg21
I0
sg22
I0
sg23
I0
sg24
I84992
sg25
I0
sg26
I0
ssS'BROWN MICHAEL'
p332
(dp333
g3
I1486
sg4
I0
sg5
I49288
sg6
I00
sg7
I0
sg8
S'michael.brown@enron.com'
p334
sg10
I0
sg11
I0
sg12
I761
sg13
I0
sg14
I41
sg15
F0.008748317631224764
sg16
F0.024390243902439025
sg17
I0
sg18
I0
sg19
I0
sg20
I13
sg21
I1
sg22
I0
sg23
I0
sg24
I49288
sg25
I0
sg26
I0
ssS'BADUM JAMES P'
p335
(dp336
g3
I0
sg4
I178980
sg5
I3486
sg6
I00
sg7
I0
sg8
I0
sg10
I0
sg11
I0
sg12
I0
sg13
I0
sg14
I0
sg15
I0
sg16
I0
sg17
I0
sg18
I0
sg19
I257817
sg20
I0
sg21
I0
sg22
I0
sg23
I0
sg24
I182466
sg25
I257817
sg26
I0
ssS'HUGHES JAMES A'
p337
(dp338
g3
I719
sg4
I0
sg5
I0
sg6
I00
sg7
I0
sg8
S'james.hughes@enron.com'
p339
sg10
I0
sg11
I0
sg12
I589
sg13
I0
sg14
I34
sg15
F0.048678720445062586
sg16
F0.14705882352941177
sg17
I0
sg18
I0
sg19
I1118394
sg20
I35
sg21
I5
sg22
I363428
sg23
I0
sg24
I0
sg25
I754966
sg26
I0
ssS'REYNOLDS LAWRENCE'
p340
(dp341
g3
I0
sg4
I51365
sg5
I8409
sg6
I00
sg7
I-200000
sg8
I0
sg10
I156250
sg11
I-140264
sg12
I0
sg13
I0
sg14
I0
sg15
I0
sg16
I0
sg17
I0
sg18
I100000
sg19
I4221891
sg20
I0
sg21
I0
sg22
I201483
sg23
I76399
sg24
I394475
sg25
I4160672
sg26
I202052
ssS'DIMICHELE RICHARD G'
p342
(dp343
g3
I0
sg4
I0
sg5
I35812
sg6
I00
sg7
I0
sg8
S'richard.dimichele@enron.com'
p344
sg10
I694862
sg11
I0
sg12
I0
sg13
I0
sg14
I0
sg15
I0
sg16
I0
sg17
I0
sg18
I1000000
sg19
I8317782
sg20
I0
sg21
I0
sg22
I126027
sg23
I262788
sg24
I2368151
sg25
I8191755
sg26
I374689
ssS'BHATNAGAR SANJAY'
p345
(dp346
g3
I523
sg4
I0
sg5
I0
sg6
I00
sg7
I0
sg8
S'sanjay.bhatnagar@enron.com'
p347
sg10
I0
sg11
I15456290
sg12
I463
sg13
I0
sg14
I29
sg15
F0.0
sg16
F0.034482758620689655
sg17
I137864
sg18
I0
sS'total_stock_value'
p348
I0
sg20
I0
sg21
I1
sg22
I-2604490
sg23
I0
sg24
I15456290
sg25
I2604490
sg26
I137864
ssS'CARTER REBECCA C'
p349
(dp350
g3
I312
sg4
I0
sg5
I0
sg6
I00
sg7
I-159792
sg8
S'rebecca.carter@enron.com'
p351
sg10
I75000
sg11
I-307301
sg12
I196
sg13
I0
sg14
I15
sg15
F0.09294871794871795
sg16
F0.4666666666666667
sg17
I0
sg18
I300000
sg19
I0
sg20
I29
sg21
I7
sg22
I307301
sg23
I261809
sg24
I477557
sg25
I0
sg26
I540
ssS'BUCHANAN HAROLD G'
p352
(dp353
g3
I1088
sg4
I0
sg5
I600
sg6
I00
sg7
I0
sg8
S'john.buchanan@enron.com'
p354
sg10
I304805
sg11
I0
sg12
I23
sg13
I0
sg14
I125
sg15
F0.0
sg16
F0.0
sg17
I0
sg18
I500000
sg19
I1014505
sg20
I0
sg21
I0
sg22
I189041
sg23
I248017
sg24
I1054637
sg25
I825464
sg26
I1215
ssS'YEAP SOON'
p355
(dp356
g3
I0
sg4
I0
sg5
I55097
sg6
I00
sg7
I0
sg8
I0
sg10
I0
sg11
I0
sg12
I0
sg13
I0
sg14
I0
sg15
I0
sg16
I0
sg17
I0
sg18
I0
sg19
I192758
sg20
I0
sg21
I0
sg22
I0
sg23
I0
sg24
I55097
sg25
I192758
sg26
I0
ssS'MURRAY JULIA H'
p357
(dp358
g3
I2192
sg4
I0
sg5
I57580
sg6
I00
sg7
I0
sg8
S'julia.murray@enron.com'
p359
sg10
I125000
sg11
I0
sg12
I395
sg13
I0
sg14
I45
sg15
F0.005018248175182482
sg16
F0.044444444444444446
sg17
I0
sg18
I400000
sg19
I597461
sg20
I11
sg21
I2
sg22
I196983
sg23
I229284
sg24
I812194
sg25
I400478
sg26
I330
ssS'GARLAND C KEVIN'
p360
(dp361
g3
I209
sg4
I0
sg5
I48405
sg6
I00
sg7
I0
sg8
S'kevin.garland@enron.com'
p362
sg10
I375304
sg11
I0
sg12
I178
sg13
I0
sg14
I44
sg15
F0.04784688995215311
sg16
F0.6136363636363636
sg17
I0
sg18
I850000
sg19
I896153
sg20
I10
sg21
I27
sg22
I259907
sg23
I231946
sg24
I1566469
sg25
I636246
sg26
I60814
ssS'DODSON KEITH'
p363
(dp364
g3
I176
sg4
I0
sg5
I28164
sg6
I00
sg7
I0
sg8
S'keith.dodson@enron.com'
p365
sg10
I0
sg11
I0
sg12
I114
sg13
I0
sg14
I14
sg15
F0.056818181818181816
sg16
F0.21428571428571427
sg17
I0
sg18
I70000
sg19
I0
sg20
I10
sg21
I3
sg22
I0
sg23
I221003
sg24
I319941
sg25
I0
sg26
I774
ssS'YEAGER F SCOTT'
p366
(dp367
g3
I0
sg4
I0
sg5
I53947
sg6
I01
sg7
I0
sg8
S'scott.yeager@enron.com'
p368
sg10
I0
sg11
I0
sg12
I0
sg13
I0
sg14
I0
sg15
I0
sg16
I0
sg17
I0
sg18
I0
sg19
I11884758
sg20
I0
sg21
I0
sg22
I3576206
sg23
I158403
sg24
I360300
sg25
I8308552
sg26
I147950
ssS'HIRKO JOSEPH'
p369
(dp370
g3
I0
sg4
I10259
sg5
I77978
sg6
I01
sg7
I0
sg8
S'joe.hirko@enron.com'
p371
sg10
I0
sg11
I0
sg12
I0
sg13
I0
sg14
I0
sg15
I0
sg16
I0
sg17
I0
sg18
I0
sg19
I30766064
sg20
I0
sg21
I0
sg22
I0
sg23
I0
sg24
I91093
sg25
I30766064
sg26
I2856
ssS'DIETRICH JANET R'
p372
(dp373
g3
I2572
sg4
I0
sg5
I3475
sg6
I00
sg7
I0
sg8
S'janet.dietrich@enron.com'
p374
sg10
I556416
sg11
I0
sg12
I1902
sg13
I0
sg14
I63
sg15
F0.11858475894245724
sg16
F0.2222222222222222
sg17
I0
sg18
I600000
sg19
I1865087
sg20
I305
sg21
I14
sg22
I315068
sg23
I250100
sg24
I1410464
sg25
I1550019
sg26
I473
ssS'DERRICK JR. JAMES V'
p375
(dp376
g3
I2181
sg4
I0
sg5
I51124
sg6
I00
sg7
I-1284000
sg8
S'james.derrick@enron.com'
p377
sg10
I484000
sg11
I-1787380
sg12
I1401
sg13
I0
sg14
I909
sg15
F0.029344337459880788
sg16
F0.022002200220022004
sg17
I0
sg18
I800000
sg19
I8831913
sg20
I64
sg21
I20
sg22
I1787380
sg23
I492375
sg24
I550981
sg25
I8831913
sg26
I7482
ssS'FREVERT MARK A'
p378
(dp379
g3
I3275
sg4
I6426990
sg5
I86987
sg6
I00
sg7
I-3367011
sg8
S'mark.frevert@enron.com'
p380
sg10
I1617011
sg11
I0
sg12
I2979
sg13
I2000000
sg14
I21
sg15
F0.07389312977099237
sg16
F0.2857142857142857
sg17
I0
sg18
I2000000
sg19
I14622185
sg20
I242
sg21
I6
sg22
I4188667
sg23
I1060932
sg24
I17252530
sg25
I10433518
sg26
I7427621
ssS'PAI LOU L'
p381
(dp382
g3
I0
sg4
I0
sg5
I32047
sg6
I00
sg7
I0
sg8
S'lou.pai@enron.com'
p383
sg10
I0
sg11
I0
sg12
I0
sg13
I0
sg14
I0
sg15
I0
sg16
I0
sg17
I0
sg18
I1000000
sg19
I23817930
sg20
I0
sg21
I0
sg22
I8453763
sg23
I261879
sg24
I3123383
sg25
I15364167
sg26
I1829457
ssS'BAY FRANKLIN R'
p384
(dp385
g3
I0
sg4
I260455
sg5
I129142
sg6
I00
sg7
I-201641
sg8
S'frank.bay@enron.com'
p386
sg10
I0
sg11
I-82782
sg12
I0
sg13
I0
sg14
I0
sg15
I0
sg16
I0
sg17
I0
sg18
I400000
sg19
I63014
sg20
I0
sg21
I0
sg22
I145796
sg23
I239671
sg24
I827696
sg25
I0
sg26
I69
ssS'HAYSLETT RODERICK J'
p387
(dp388
g3
I2649
sg4
I0
sg5
I0
sg6
I00
sg7
I0
sg8
S'rod.hayslett@enron.com'
p389
sg10
I0
sg11
I0
sg12
I571
sg13
I0
sg14
I1061
sg15
F0.01321253303133258
sg16
F0.03581526861451461
sg17
I0
sg18
I0
sg19
I346663
sg20
I35
sg21
I38
sg22
I346663
sg23
I0
sg24
I0
sg25
I0
sg26
I0
ssS'FUGH JOHN L'
p390
(dp391
g3
I0
sg4
I50591
sg5
I0
sg6
I00
sg7
I0
sg8
I0
sg10
I0
sg11
I0
sg12
I0
sg13
I0
sg14
I0
sg15
I0
sg16
I0
sg17
I0
sg18
I0
sg19
I176378
sg20
I0
sg21
I0
sg22
I0
sg23
I0
sg24
I50591
sg25
I176378
sg26
I0
ssS'FALLON JAMES B'
p392
(dp393
g3
I1755
sg4
I0
sg5
I95924
sg6
I00
sg7
I0
sg8
S'jim.fallon@enron.com'
p394
sg10
I374347
sg11
I0
sg12
I1604
sg13
I0
sg14
I75
sg15
F0.023931623931623933
sg16
F0.49333333333333335
sg17
I0
sg18
I2500000
sg19
I2332399
sg20
I42
sg21
I37
sg22
I1392142
sg23
I304588
sg24
I3676340
sg25
I940257
sg26
I401481
ssS'KOENIG MARK E'
p395
(dp396
g3
I2374
sg4
I0
sg5
I127017
sg6
I01
sg7
I0
sg8
S'mark.koenig@enron.com'
p397
sg10
I300000
sg11
I0
sg12
I2271
sg13
I0
sg14
I61
sg15
F0.02232518955349621
sg16
F0.2459016393442623
sg17
I0
sg18
I700000
sg19
I1920055
sg20
I53
sg21
I15
sg22
I1248318
sg23
I309946
sg24
I1587421
sg25
I671737
sg26
I150458
ssS'SAVAGE FRANK'
p398
(dp399
g3
I0
sg4
I0
sg5
I0
sg6
I00
sg7
I-121284
sg8
I0
sg10
I0
sg11
I0
sg12
I0
sg13
I0
sg14
I0
sg15
I0
sg16
I0
sg17
I125034
sg18
I0
sg19
I0
sg20
I0
sg21
I0
sg22
I0
sg23
I0
sg24
I3750
sg25
I0
sg26
I0
ssS'IZZO LAWRENCE L'
p400
(dp401
g3
I496
sg4
I0
sg5
I28093
sg6
I00
sg7
I0
sg8
S'larry.izzo@enron.com'
p402
sg10
I312500
sg11
I0
sg12
I437
sg13
I0
sg14
I19
sg15
F0.056451612903225805
sg16
F0.2631578947368421
sg17
I0
sg18
I0
sg19
I5819980
sg20
I28
sg21
I5
sg22
I3654808
sg23
I85274
sg24
I1979596
sg25
I2165172
sg26
I1553729
ssS'TILNEY ELIZABETH A'
p403
(dp404
g3
I460
sg4
I0
sg5
I0
sg6
I00
sg7
I-575000
sg8
S'elizabeth.tilney@enron.com'
p405
sg10
I275000
sg11
I0
sg12
I379
sg13
I0
sg14
I19
sg15
F0.021739130434782608
sg16
F0.5789473684210527
sg17
I0
sg18
I300000
sg19
I1168042
sg20
I10
sg21
I11
sg22
I576792
sg23
I247338
sg24
I399393
sg25
I591250
sg26
I152055
ssS'MARTIN AMANDA K'
p406
(dp407
g3
I1522
sg4
I85430
sg5
I8211
sg6
I00
sg7
I0
sg8
S'a..martin@enron.com'
p408
sg10
I5145434
sg11
I0
sg12
I477
sg13
I0
sg14
I230
sg15
F0.005256241787122208
sg16
F0.0
sg17
I0
sg18
I0
sg19
I2070306
sg20
I8
sg21
I0
sg22
I0
sg23
I349487
sg24
I8407016
sg25
I2070306
sg26
I2818454
ssS'BUY RICHARD B'
p409
(dp410
g3
I3523
sg4
I649584
sg5
I0
sg6
I00
sg7
I-694862
sg8
S'rick.buy@enron.com'
p411
sg10
I769862
sg11
I0
sg12
I2333
sg13
I0
sg14
I1053
sg15
F0.04428044280442804
sg16
F0.06742640075973409
sg17
I0
sg18
I900000
sg19
I3444470
sg20
I156
sg21
I71
sg22
I901657
sg23
I330546
sg24
I2355702
sg25
I2542813
sg26
I400572
ssS'GRAMM WENDY L'
p412
(dp413
g3
I0
sg4
I0
sg5
I0
sg6
I00
sg7
I0
sg8
I0
sg10
I0
sg11
I0
sg12
I0
sg13
I0
sg14
I0
sg15
I0
sg16
I0
sg17
I119292
sg18
I0
sg19
I0
sg20
I0
sg21
I0
sg22
I0
sg23
I0
sg24
I119292
sg25
I0
sg26
I0
ssS'CAUSEY RICHARD A'
p414
(dp415
g3
I1892
sg4
I0
sg5
I30674
sg6
I01
sg7
I-235000
sg8
S'richard.causey@enron.com'
p416
sg10
I350000
sg11
I0
sg12
I1585
sg13
I0
sg14
I49
sg15
F0.0306553911205074
sg16
F0.24489795918367346
sg17
I0
sg18
I1000000
sg19
I2502063
sg20
I58
sg21
I12
sg22
I2502063
sg23
I415189
sg24
I1868758
sg25
I0
sg26
I307895
ssS'TAYLOR MITCHELL S'
p417
(dp418
g3
I533
sg4
I227449
sg5
I0
sg6
I00
sg7
I0
sg8
S'mitchell.taylor@enron.com'
p419
sg10
I0
sg11
I0
sg12
I300
sg13
I0
sg14
I29
sg15
F0.0
sg16
F0.0
sg17
I0
sg18
I600000
sg19
I3745048
sg20
I0
sg21
I0
sg22
I563798
sg23
I265214
sg24
I1092663
sg25
I3181250
sg26
I0
ssS'DONAHUE JR JEFFREY M'
p420
(dp421
g3
I865
sg4
I0
sg5
I96268
sg6
I00
sg7
I-300000
sg8
S'jeff.donahue@enron.com'
p422
sg10
I0
sg11
I0
sg12
I772
sg13
I0
sg14
I22
sg15
F0.21734104046242775
sg16
F0.5
sg17
I0
sg18
I800000
sg19
I1080988
sg20
I188
sg21
I11
sg22
I315068
sg23
I278601
sg24
I875760
sg25
I765920
sg26
I891
ssS'GLISAN JR BEN F'
p423
(dp424
g3
I873
sg4
I0
sg5
I125978
sg6
I01
sg7
I0
sg8
S'ben.glisan@enron.com'
p425
sg10
I71023
sg11
I0
sg12
I874
sg13
I0
sg14
I16
sg15
F0.05956471935853379
sg16
F0.375
sg17
I0
sg18
I600000
sg19
I778546
sg20
I52
sg21
I6
sg22
I393818
sg23
I274975
sg24
I1272284
sg25
I384728
sg26
I200308
ss.