(lp0
S'poi'
p1
aS'salary'
p2
aS'to_messages'
p3
aS'deferral_payments'
p4
aS'total_payments'
p5
aS'bonus'
p6
aS'restricted_stock_deferred'
p7
aS'deferred_income'
p8
aS'total_stock_value'
p9
aS'expenses'
p10
aS'from_poi_to_this_person'
p11
aS'from_messages'
p12
aS'from_this_person_to_poi'
p13
aS'long_term_incentive'
p14
aS'restricted_stock'
p15
a.